
main.elf:     file format elf32-littlearm

Sections:
Idx Name          Size      VMA       LMA       File off  Algn
  0 .text         000025b8  80000000  80000000  00008000  2**2
                  CONTENTS, ALLOC, LOAD, READONLY, CODE
  1 .rodata       00000010  800025b8  800025b8  0000a5b8  2**2
                  CONTENTS, ALLOC, LOAD, READONLY, DATA
  2 .data         0000000c  a0000000  800025c8  00010000  2**2
                  CONTENTS, ALLOC, LOAD, DATA
  3 .bss          00000028  a000000c  a000000c  0001000c  2**2
                  ALLOC
  4 .heap         00000400  a0000034  a0000034  0001000c  2**0
                  CONTENTS
  5 .stack        00000400  a0000438  a0000438  0001040c  2**0
                  CONTENTS
  6 .stack_irq    00000100  a000083c  a000083c  0001080c  2**0
                  CONTENTS
  7 .stack_fiq    00000100  a0000940  a0000940  0001090c  2**0
                  CONTENTS
  8 .comment      000000a2  00000000  00000000  00010a0c  2**0
                  CONTENTS, READONLY
  9 .debug_aranges 00000658  00000000  00000000  00010ab0  2**3
                  CONTENTS, READONLY, DEBUGGING
 10 .debug_pubnames 00000d6b  00000000  00000000  00011108  2**0
                  CONTENTS, READONLY, DEBUGGING
 11 .debug_info   00002894  00000000  00000000  00011e73  2**0
                  CONTENTS, READONLY, DEBUGGING
 12 .debug_abbrev 000009b0  00000000  00000000  00014707  2**0
                  CONTENTS, READONLY, DEBUGGING
 13 .debug_line   000014e4  00000000  00000000  000150b7  2**0
                  CONTENTS, READONLY, DEBUGGING
 14 .debug_frame  00000f44  00000000  00000000  0001659c  2**2
                  CONTENTS, READONLY, DEBUGGING
 15 .debug_str    00000ad8  00000000  00000000  000174e0  2**0
                  CONTENTS, READONLY, DEBUGGING
 16 .debug_loc    0000136f  00000000  00000000  00017fb8  2**0
                  CONTENTS, READONLY, DEBUGGING
 17 .ARM.attributes 00000010  00000000  00000000  00019327  2**0
                  CONTENTS, READONLY
Disassembly of section .text:

80000000 <Reset_Vec>:
/*******************************************************************************
                        Exception vectors
*******************************************************************************/

Reset_Vec:	LDR     pc, Reset_Addr		/* Reset Handler */
80000000:	e59ff018 	ldr	pc, [pc, #24]	; 80000020 <Reset_Addr>

80000004 <Undef_Vec>:
Undef_Vec:	LDR     pc, Undefined_Addr
80000004:	e59ff018 	ldr	pc, [pc, #24]	; 80000024 <Undefined_Addr>

80000008 <SWI_Vec>:
SWI_Vec:	LDR     pc, SWI_Addr
80000008:	e59ff018 	ldr	pc, [pc, #24]	; 80000028 <SWI_Addr>

8000000c <PAbt_Vec>:
PAbt_Vec:	LDR     pc, Prefetch_Addr
8000000c:	e59ff018 	ldr	pc, [pc, #24]	; 8000002c <Prefetch_Addr>

80000010 <DAbt_Vec>:
DAbt_Vec:	LDR     pc, Abort_Addr
80000010:	e59ff018 	ldr	pc, [pc, #24]	; 80000030 <Abort_Addr>
			NOP							/* Reserved vector */
80000014:	e1a00000 	nop			(mov r0,r0)

80000018 <IRQ_Vec>:
IRQ_Vec:	LDR     pc, IRQ_Addr
80000018:	e59ff018 	ldr	pc, [pc, #24]	; 80000038 <IRQ_Addr>

8000001c <FIQ_Vec>:
FIQ_Vec:	LDR     pc, FIQ_Addr
8000001c:	e59ff018 	ldr	pc, [pc, #24]	; 8000003c <FIQ_Addr>

80000020 <Reset_Addr>:
80000020:	80000140 	andhi	r0, r0, r0, asr #2

80000024 <Undefined_Addr>:
80000024:	800003b4 	strhih	r0, [r0], -r4

80000028 <SWI_Addr>:
80000028:	80000394 	mulhi	r0, r4, r3

8000002c <Prefetch_Addr>:
8000002c:	800003d0 	ldrhid	r0, [r0], -r0

80000030 <Abort_Addr>:
80000030:	800003f0 	strhid	r0, [r0], -r0
80000034:	00000000 	andeq	r0, r0, r0

80000038 <IRQ_Addr>:
80000038:	80000348 	andhi	r0, r0, r8, asr #6

8000003c <FIQ_Addr>:
8000003c:	80000410 	andhi	r0, r0, r0, lsl r4

80000040 <PRCCUCMU_Addr>:
80000040:	80000430 	andhi	r0, r0, r0, lsr r4

80000044 <EXTIT01_Addr>:
80000044:	80000448 	andhi	r0, r0, r8, asr #8

80000048 <EXTIT02_Addr>:
80000048:	80000460 	andhi	r0, r0, r0, ror #8

8000004c <EXTIT03_Addr>:
8000004c:	80000478 	andhi	r0, r0, r8, ror r4

80000050 <EXTIT04_Addr>:
80000050:	80000490 	mulhi	r0, r0, r4

80000054 <EXTIT05_Addr>:
80000054:	800004a8 	andhi	r0, r0, r8, lsr #9

80000058 <EXTIT06_Addr>:
80000058:	800004c0 	andhi	r0, r0, r0, asr #9

8000005c <EXTIT07_Addr>:
8000005c:	800004d8 	ldrhid	r0, [r0], -r8

80000060 <EXTIT08_Addr>:
80000060:	800004f0 	strhid	r0, [r0], -r0

80000064 <EXTIT09_Addr>:
80000064:	80000508 	andhi	r0, r0, r8, lsl #10

80000068 <EXTIT10_Addr>:
80000068:	80000520 	andhi	r0, r0, r0, lsr #10

8000006c <EXTIT11_Addr>:
8000006c:	80000538 	andhi	r0, r0, r8, lsr r5

80000070 <EXTIT12_Addr>:
80000070:	80000550 	andhi	r0, r0, r0, asr r5

80000074 <EXTIT13_Addr>:
80000074:	80000568 	andhi	r0, r0, r8, ror #10

80000078 <EXTIT14_Addr>:
80000078:	80000580 	andhi	r0, r0, r0, lsl #11

8000007c <EXTIT15_Addr>:
8000007c:	80000598 	mulhi	r0, r8, r5

80000080 <DMATRERR_Addr>:
80000080:	800005b0 	strhih	r0, [r0], -r0

80000084 <TIM1_Addr>:
80000084:	800005c8 	andhi	r0, r0, r8, asr #11

80000088 <TIM2_Addr>:
80000088:	800005e0 	andhi	r0, r0, r0, ror #11

8000008c <TIM3_Addr>:
8000008c:	800005f8 	strhid	r0, [r0], -r8

80000090 <TIM4_Addr>:
80000090:	80000610 	andhi	r0, r0, r0, lsl r6

80000094 <TB0_Addr>:
80000094:	80000628 	andhi	r0, r0, r8, lsr #12

80000098 <TB1_Addr>:
80000098:	80000640 	andhi	r0, r0, r0, asr #12

8000009c <TB2_Addr>:
8000009c:	80000658 	andhi	r0, r0, r8, asr r6

800000a0 <TIM5_Addr>:
800000a0:	80000670 	andhi	r0, r0, r0, ror r6

800000a4 <TIM6_Addr>:
800000a4:	80000688 	andhi	r0, r0, r8, lsl #13

800000a8 <TIM7_Addr>:
800000a8:	800006a0 	andhi	r0, r0, r0, lsr #13

800000ac <TIM8_Addr>:
800000ac:	800006b8 	strhih	r0, [r0], -r8

800000b0 <TIM9_Addr>:
800000b0:	800006d0 	ldrhid	r0, [r0], -r0
	...

800000bc <UART2_Addr>:
800000bc:	800006e8 	andhi	r0, r0, r8, ror #13

800000c0 <UART3_Addr>:
800000c0:	80000700 	andhi	r0, r0, r0, lsl #14

800000c4 <FlashEOP_Addr>:
800000c4:	80000718 	andhi	r0, r0, r8, lsl r7

800000c8 <PWM0_Addr>:
800000c8:	80000730 	andhi	r0, r0, r0, lsr r7

800000cc <PWM1_Addr>:
800000cc:	80000748 	andhi	r0, r0, r8, asr #14

800000d0 <PWM2_Addr>:
800000d0:	80000760 	andhi	r0, r0, r0, ror #14

800000d4 <PWM3_Addr>:
800000d4:	80000778 	andhi	r0, r0, r8, ror r7

800000d8 <PWM4_Addr>:
800000d8:	80000790 	mulhi	r0, r0, r7

800000dc <PWM5_Addr>:
800000dc:	800007a8 	andhi	r0, r0, r8, lsr #15

800000e0 <WIUI_Addr>:
800000e0:	800007c0 	andhi	r0, r0, r0, asr #15

800000e4 <WDGWUT_Addr>:
800000e4:	800007d8 	ldrhid	r0, [r0], -r8

800000e8 <BSPI0_Addr>:
800000e8:	800007f0 	strhid	r0, [r0], -r0

800000ec <BSPI1_Addr>:
800000ec:	80000808 	andhi	r0, r0, r8, lsl #16

800000f0 <BSPI2_Addr>:
800000f0:	80000820 	andhi	r0, r0, r0, lsr #16

800000f4 <UART0_Addr>:
800000f4:	80000838 	andhi	r0, r0, r8, lsr r8

800000f8 <UART1_Addr>:
800000f8:	80000850 	andhi	r0, r0, r0, asr r8

800000fc <I2C0ITERR_Addr>:
800000fc:	80000868 	andhi	r0, r0, r8, ror #16

80000100 <I2C1ITERR_Addr>:
80000100:	80000880 	andhi	r0, r0, r0, lsl #17
	...

8000010c <I2C0ITDDC_Addr>:
8000010c:	80000898 	mulhi	r0, r8, r8

80000110 <I2C1ITDDC_Addr>:
80000110:	800008b0 	strhih	r0, [r0], -r0
	...

8000011c <CAN0_Addr>:
8000011c:	800008c8 	andhi	r0, r0, r8, asr #17

80000120 <CAN1_Addr>:
80000120:	800008e0 	andhi	r0, r0, r0, ror #17

80000124 <CAN2_Addr>:
80000124:	800008f8 	strhid	r0, [r0], -r8

80000128 <DMA0_Addr>:
80000128:	80000910 	andhi	r0, r0, r0, lsl r9

8000012c <DMA1_Addr>:
8000012c:	80000928 	andhi	r0, r0, r8, lsr #18

80000130 <DMA2_Addr>:
80000130:	80000940 	andhi	r0, r0, r0, asr #18

80000134 <DMA3_Addr>:
80000134:	80000958 	andhi	r0, r0, r8, asr r9

80000138 <ADC_Addr>:
80000138:	80000970 	andhi	r0, r0, r0, ror r9

8000013c <RTC_Addr>:
8000013c:	80000988 	andhi	r0, r0, r8, lsl #19

80000140 <_start>:
		BNE     copy_ram
		
		LDR     r1, =CFG_R0_Addr
		LDR     r0, [r1]
		BIC     r0, r0, #0x01
80000140:	e59ff1b4 	ldr	pc, [pc, #436]	; 800002fc <RCCU_RTC_Osc+0x4>

80000144 <NextInst>:
		ORR     r0, r0, r4
		STR     r0, [r1]
.endif
80000144:	e1a00000 	nop			(mov r0,r0)

80000148:	e1a00000 	nop			(mov r0,r0)
/* After remap this will be our reset handler */
8000014c:	e1a00000 	nop			(mov r0,r0)

80000150:	e1a00000 	nop			(mov r0,r0)
_start:
80000154:	e1a00000 	nop			(mov r0,r0)
		LDR     pc, =NextInst
80000158:	e1a00000 	nop			(mov r0,r0)
NextInst:
8000015c:	e1a00000 	nop			(mov r0,r0)

80000160:	e1a00000 	nop			(mov r0,r0)
		NOP		/* Wait for OSC stabilization */
80000164:	e1a00000 	nop			(mov r0,r0)
		NOP
		NOP
		NOP
		NOP
80000168:	e3a00001 	mov	r0, #1	; 0x1
		NOP
8000016c:	e3a01121 	mov	r1, #1073741832	; 0x40000008
		NOP
80000170:	e5810000 	str	r0, [r1]
		NOP
80000174:	e3a00000 	mov	r0, #0	; 0x0
		NOP
80000178:	e5810004 	str	r0, [r1, #4]

/* Reset all peripheral clocks except RAM */

		MOV		r0, #1  
		LDR		r1, =CFG_PCGR0_Addr
		STR		r0, [r1]
		MOV		r0, #0
		STR		r0, [r1,#4]
        
.if DBGRAM
		LDR     r1, =CFG_R0_Addr
		LDR     r0, [r1]
8000017c:	e321f0d7 	msr	CPSR_c, #215	; 0xd7
		ORR     r0, r0, #RAM_mask
80000180:	e59fd178 	ldr	sp, [pc, #376]	; 80000300 <RCCU_RTC_Osc+0x8>
		STR     r0, [r1]
.endif

80000184:	e321f0db 	msr	CPSR_c, #219	; 0xdb
/* Setup Stack for each mode */
80000188:	e59fd174 	ldr	sp, [pc, #372]	; 80000304 <RCCU_RTC_Osc+0xc>

/* Enter Abort Mode and set its Stack Pointer */
		MSR     cpsr_c, #Mode_ABT|I_Bit|F_Bit
8000018c:	e321f0d3 	msr	CPSR_c, #211	; 0xd3
		LDR     sp, =__stack_abt_end__
80000190:	e59fd170 	ldr	sp, [pc, #368]	; 80000308 <RCCU_RTC_Osc+0x10>

/* Enter Undefined Instruction Mode and set its Stack Pointer */
		MSR     cpsr_c, #Mode_UND|I_Bit|F_Bit
80000194:	e321f0d1 	msr	CPSR_c, #209	; 0xd1
		LDR     sp, =__stack_und_end__
80000198:	e59fd16c 	ldr	sp, [pc, #364]	; 8000030c <RCCU_RTC_Osc+0x14>

/* Enter Supervisor Mode and set its Stack Pointer */
		MSR     cpsr_c, #Mode_SVC|I_Bit|F_Bit
8000019c:	e321f0d2 	msr	CPSR_c, #210	; 0xd2
		LDR     sp, =__stack_svc_end__
800001a0:	e59fd168 	ldr	sp, [pc, #360]	; 80000310 <RCCU_RTC_Osc+0x18>

/* Enter FIQ Mode and set its Stack Pointer */
		MSR     cpsr_c, #Mode_FIQ|I_Bit|F_Bit
800001a4:	e321f01f 	msr	CPSR_c, #31	; 0x1f
		LDR     sp, =__stack_fiq_end__
800001a8:	e59fd164 	ldr	sp, [pc, #356]	; 80000314 <RCCU_RTC_Osc+0x1c>

/* Enter IRQ Mode and set its Stack Pointer */
		MSR     cpsr_c, #Mode_IRQ|I_Bit|F_Bit
800001ac:	e59fa164 	ldr	sl, [pc, #356]	; 80000318 <RCCU_RTC_Osc+0x20>
		LDR     sp, =__stack_irq_end__

/* Enter System Mode and set its Stack Pointer */
		MSR     cpsr_c, #Mode_SYS
		LDR     sp, =__stack_end__

/* Setup a default Stack Limit (when compiled with "-mapcs-stack-check") */
		LDR     sl, =__bss_end__

/******************************************************************************
EIC initialization
Description  : Initialize the EIC as following :
              - IRQ disabled
              - FIQ disabled
              - IVR contain the load PC opcode (0xF59FF00)
              - Current priority level equal to 0
              - All channels are disabled
              - All channels priority equal to 0
              - All SIR registers contain offset to the related IRQ table entry
******************************************************************************/

/* enable eic clock */

		LDR     r1, =CFG_PCGR0_Addr
800001b0:	e3a01121 	mov	r1, #1073741832	; 0x40000008
		LDR     r0, [r1]
800001b4:	e5910000 	ldr	r0, [r1]
		ORR     r0, r0, #0x20000000
800001b8:	e3800202 	orr	r0, r0, #536870912	; 0x20000000
		STR     r0, [r1] 
800001bc:	e5810000 	str	r0, [r1]

/* Wait for EIC stabilization */

		NOP          
800001c0:	e1a00000 	nop			(mov r0,r0)
		NOP
800001c4:	e1a00000 	nop			(mov r0,r0)
		NOP
800001c8:	e1a00000 	nop			(mov r0,r0)
		NOP
800001cc:	e1a00000 	nop			(mov r0,r0)
		NOP
800001d0:	e1a00000 	nop			(mov r0,r0)
		NOP
800001d4:	e1a00000 	nop			(mov r0,r0)
		NOP
800001d8:	e1a00000 	nop			(mov r0,r0)
		NOP
800001dc:	e1a00000 	nop			(mov r0,r0)

800001e0 <EIC_INIT>:
        
EIC_INIT:
		LDR     r3, =EIC_Base_addr
800001e0:	e59f3134 	ldr	r3, [pc, #308]	; 8000031c <RCCU_RTC_Osc+0x24>
		LDR     r4, =0x00000000
800001e4:	e3a04000 	mov	r4, #0	; 0x0
		STR     r4, [r3, #ICR_off_addr]		/* Disable FIQ and IRQ */
800001e8:	e5834000 	str	r4, [r3]
		STR     r4, [r3, #IER0_off_addr]	/* Disable all channels interrupts */
800001ec:	e5834020 	str	r4, [r3, #32]
		STR     r4, [r3, #IER1_off_addr]	/* Disable all channels interrupts */
800001f0:	e5834024 	str	r4, [r3, #36]
		LDR     r4, =0xFFFFFFFF
800001f4:	e3e04000 	mvn	r4, #0	; 0x0
		STR     r4, [r3, #IPR0_off_addr]	/* Clear all IRQ pending bits */
800001f8:	e5834040 	str	r4, [r3, #64]
		STR     r4, [r3, #IPR1_off_addr]	/* Clear all IRQ pending bits */
800001fc:	e5834044 	str	r4, [r3, #68]
		LDR     r4, =0x18
80000200:	e3a04018 	mov	r4, #24	; 0x18
		STR     r4, [r3, #FIR_off_addr]		/* Disable FIQ channels and clear FIQ pending bits */
80000204:	e583401c 	str	r4, [r3, #28]
		LDR     r4, =0x00000000
80000208:	e3a04000 	mov	r4, #0	; 0x0
		STR     r4, [r3, #CIPR_off_addr]	/* Reset the current priority register */
8000020c:	e5834008 	str	r4, [r3, #8]
		LDR     r4, =0xE59F0000
80000210:	e59f4108 	ldr	r4, [pc, #264]	; 80000320 <RCCU_RTC_Osc+0x28>
		STR     r4, [r3, #IVR_off_addr]		/* Write the LDR pc,pc,#offset instruction code in IVR[31:16] */
80000214:	e5834018 	str	r4, [r3, #24]
		LDR     r2, =64						/* 32 Channel to initialize */
80000218:	e3a02040 	mov	r2, #64	; 0x40
		LDR     r0, =PRCCUCMU_Addr			/* Read the address of the IRQs address table */
8000021c:	e59f0100 	ldr	r0, [pc, #256]	; 80000324 <RCCU_RTC_Osc+0x2c>
		LDR     r1, =0x00000FFF
80000220:	e59f1100 	ldr	r1, [pc, #256]	; 80000328 <RCCU_RTC_Osc+0x30>
		AND     r0, r0, r1
80000224:	e0000001 	and	r0, r0, r1
		LDR     r5, =SIR0_off_addr			/* Read SIR0 address */
80000228:	e3a05060 	mov	r5, #96	; 0x60
		SUB     r4, r0, #8					/* subtract 8 for prefetch */
8000022c:	e2404008 	sub	r4, r0, #8	; 0x8
		LDR     r1, =0xF3E8					/* add the offset to the 0x00000000 address(IVR address + 7E8 = 0x00000000) */
80000230:	e59f10f4 	ldr	r1, [pc, #244]	; 8000032c <RCCU_RTC_Osc+0x34>
											/* 0xF7E8 used to complete the LDR pc,offset opcode */
		ADD     r1, r4, r1					/* compute the jump offset */
80000234:	e0841001 	add	r1, r4, r1

80000238 <EIC_INI>:
EIC_INI:
		MOV     r4, r1, LSL #16				/* Left shift the result */
80000238:	e1a04801 	mov	r4, r1, lsl #16
		STR     r4, [r3, r5]				/* Store the result in SIRx register */
8000023c:	e7834005 	str	r4, [r3, r5]
		ADD     r1, r1, #4					/* Next IRQ address */
80000240:	e2811004 	add	r1, r1, #4	; 0x4
		ADD     r5, r5, #4					/* Next SIR */
80000244:	e2855004 	add	r5, r5, #4	; 0x4
		SUBS    r2, r2, #1					/* Decrement the number of SIR registers to initialize */
80000248:	e2522001 	subs	r2, r2, #1	; 0x1
		BNE     EIC_INI						/* If more then continue */
8000024c:	1afffff9 	bne	80000238 <EIC_INI>

/* Relocate .data section (Copy from ROM to RAM) */
		LDR     r1, =_etext
80000250:	e59f10d8 	ldr	r1, [pc, #216]	; 80000330 <RCCU_RTC_Osc+0x38>
		LDR     r2, =__data_start
80000254:	e59f20d8 	ldr	r2, [pc, #216]	; 80000334 <RCCU_RTC_Osc+0x3c>
		LDR     r3, =_edata
80000258:	e59f30d8 	ldr	r3, [pc, #216]	; 80000338 <RCCU_RTC_Osc+0x40>

8000025c <LoopRel>:
LoopRel:
		CMP     r2, r3
8000025c:	e1520003 	cmp	r2, r3
		LDRLO   r0, [r1], #4
80000260:	34910004 	ldrcc	r0, [r1], #4
		STRLO   r0, [r2], #4
80000264:	34820004 	strcc	r0, [r2], #4
		BLO     LoopRel
80000268:	3afffffb 	bcc	8000025c <LoopRel>

/* Clear .bss section (Zero init) */
		MOV     r0, #0
8000026c:	e3a00000 	mov	r0, #0	; 0x0
		LDR     r1, =__bss_start__
80000270:	e59f10c4 	ldr	r1, [pc, #196]	; 8000033c <RCCU_RTC_Osc+0x44>
		LDR     r2, =__bss_end__
80000274:	e59f209c 	ldr	r2, [pc, #156]	; 80000318 <RCCU_RTC_Osc+0x20>

80000278 <LoopZI>:
LoopZI:
		CMP     r1, r2
80000278:	e1510002 	cmp	r1, r2
		STRLO   r0, [r1], #4
8000027c:	34810004 	strcc	r0, [r1], #4
		BLO     LoopZI
80000280:	3afffffc 	bcc	80000278 <LoopZI>
  		
/* Call C++ constructors */
		LDR 	r0, =__ctors_start__
80000284:	e59f00b4 	ldr	r0, [pc, #180]	; 80000340 <RCCU_RTC_Osc+0x48>
		LDR 	r1, =__ctors_end__
80000288:	e59f10b4 	ldr	r1, [pc, #180]	; 80000344 <RCCU_RTC_Osc+0x4c>

8000028c <ctor_loop>:
ctor_loop:
		CMP 	r0, r1
8000028c:	e1500001 	cmp	r0, r1
		BEQ 	ctor_end
80000290:	0a000005 	beq	800002ac <ctor_end>
		LDR 	r2, [r0], #4
80000294:	e4902004 	ldr	r2, [r0], #4
		STMFD 	sp!, {r0-r1}
80000298:	e92d0003 	stmdb	sp!, {r0, r1}
		MOV 	lr, pc
8000029c:	e1a0e00f 	mov	lr, pc
		BX		r2
800002a0:	e12fff12 	bx	r2
		LDMFD 	sp!, {r0-r1}
800002a4:	e8bd0003 	ldmia	sp!, {r0, r1}
		B 		ctor_loop
800002a8:	eafffff7 	b	8000028c <ctor_loop>

800002ac <ctor_end>:
ctor_end:

/* Need to set up standard file handles */
/* Only used under simulator, normally overide syscall.c */
#		BL		initialise_monitor_handles

/* if we use debug version of str7lib this will call the init function */
		
		BL		libdebug
800002ac:	ebffffff 	bl	800002b0 <libdebug>

800002b0 <libdebug>:
libdebug:		

/* Enter the C code, use B instruction so as to never return */
/* use BL main if you want to use c++ destructors below */
		B		main
800002b0:	ea00032d 	b	80000f6c <main>

800002b4 <ARMIRQ_Disable>:

/* Call destructors */
#		LDR		r0, =__dtors_start__
#		LDR		r1, =__dtors_end__
dtor_loop:
#		CMP		r0, r1
#		BEQ		dtor_end
#		LDR		r2, [r0], #4
#		STMFD	sp!, {r0-r1}
#		MOV		lr, pc
#		BX		r2
#		LDMFD	sp!, {r0-r1}
#		B		dtor_loop
dtor_end:

/* Return from main, loop forever. */
exit_loop:
#		B		exit_loop

/* Disable the ARM7 core IRQ line */
ARMIRQ_Disable:
	MRS		r0, CPSR
800002b4:	e10f0000 	mrs	r0, CPSR
	ORR		r0, r0, #I_Bit	
800002b8:	e3800080 	orr	r0, r0, #128	; 0x80
	MSR		CPSR_c, r0
800002bc:	e121f000 	msr	CPSR_c, r0
	BX		lr
800002c0:	e12fff1e 	bx	lr

800002c4 <ARMFIQ_Disable>:

/* Disable the ARM7 core FIQ line. */
ARMFIQ_Disable:
	MRS		r0, CPSR
800002c4:	e10f0000 	mrs	r0, CPSR
	ORR		r0, r0, #F_Bit	
800002c8:	e3800040 	orr	r0, r0, #64	; 0x40
	MSR		CPSR_c, r0
800002cc:	e121f000 	msr	CPSR_c, r0
	BX		lr
800002d0:	e12fff1e 	bx	lr

800002d4 <ARMIRQ_Enable>:

/* Enable the ARM7 core IRQ line. */
ARMIRQ_Enable:
	MRS		r0, CPSR
800002d4:	e10f0000 	mrs	r0, CPSR
	BIC		r0, r0,#I_Bit	
800002d8:	e3c00080 	bic	r0, r0, #128	; 0x80
	MSR		CPSR_c, r0
800002dc:	e121f000 	msr	CPSR_c, r0
	BX		lr
800002e0:	e12fff1e 	bx	lr

800002e4 <ARMFIQ_Enable>:

/* Enable the ARM7 core FIQ line. */
ARMFIQ_Enable:
	MRS		r0, CPSR
800002e4:	e10f0000 	mrs	r0, CPSR
	BIC		r0, r0,#F_Bit	
800002e8:	e3c00040 	bic	r0, r0, #64	; 0x40
	MSR		CPSR_c, r0
800002ec:	e121f000 	msr	CPSR_c, r0
	BX		lr
800002f0:	e12fff1e 	bx	lr

800002f4 <RCCU_Main_Osc>:
800002f4:	003d0900 	eoreqs	r0, sp, r0, lsl #18

800002f8 <RCCU_RTC_Osc>:
800002f8:	0023b4a0 	eoreq	fp, r3, r0, lsr #9
800002fc:	80000144 	andhi	r0, r0, r4, asr #2
80000300:	a0000a48 	andge	r0, r0, r8, asr #20
80000304:	a0000a4c 	andge	r0, r0, ip, asr #20
80000308:	a0000a44 	andge	r0, r0, r4, asr #20
8000030c:	a0000a40 	andge	r0, r0, r0, asr #20
80000310:	a000093c 	andge	r0, r0, ip, lsr r9
80000314:	a0000838 	andge	r0, r0, r8, lsr r8
80000318:	a0000034 	andge	r0, r0, r4, lsr r0
8000031c:	fffffc00 	undefined instruction 0xfffffc00
80000320:	e59f0000 	ldr	r0, [pc, #0]	; 80000328 <RCCU_RTC_Osc+0x30>
80000324:	80000040 	andhi	r0, r0, r0, asr #32
80000328:	00000fff 	streqd	r0, [r0], -pc
8000032c:	0000f3e8 	andeq	pc, r0, r8, ror #7
80000330:	800025c8 	andhi	r2, r0, r8, asr #11
80000334:	a0000000 	andge	r0, r0, r0
80000338:	a000000c 	andge	r0, r0, ip
8000033c:	a000000c 	andge	r0, r0, ip
80000340:	800025b8 	strhih	r2, [r0], -r8
80000344:	800025b8 	strhih	r2, [r0], -r8

80000348 <IRQHandler>:

/*******************************************************************************
               Exception handlers address table
*******************************************************************************/

Reset_Addr:		.word	_start
Undefined_Addr:	.word	UndefinedHandler
SWI_Addr:		.word	SWIHandler
Prefetch_Addr:	.word	PrefetchHandler
Abort_Addr:		.word	AbortHandler
				.word	0				/* reserved */
IRQ_Addr:		.word	IRQHandler
FIQ_Addr:		.word	FIQHandler

/*******************************************************************************
              Peripherals IRQ handlers address table
*******************************************************************************/

PRCCUCMU_Addr:	.word	PRCCUCMUIRQHandler
EXTIT01_Addr:	.word	EXTIT01IRQHandler
EXTIT02_Addr:	.word	EXTIT02IRQHandler
EXTIT03_Addr:	.word	EXTIT03IRQHandler
EXTIT04_Addr:	.word	EXTIT04IRQHandler
EXTIT05_Addr:	.word	EXTIT05IRQHandler
EXTIT06_Addr:	.word	EXTIT06IRQHandler
EXTIT07_Addr:	.word	EXTIT07IRQHandler
EXTIT08_Addr:	.word	EXTIT08IRQHandler
EXTIT09_Addr:	.word	EXTIT09IRQHandler
EXTIT10_Addr:	.word	EXTIT10IRQHandler
EXTIT11_Addr:	.word	EXTIT11IRQHandler
EXTIT12_Addr:	.word	EXTIT12IRQHandler
EXTIT13_Addr:	.word	EXTIT13IRQHandler
EXTIT14_Addr:	.word	EXTIT14IRQHandler
EXTIT15_Addr:	.word	EXTIT15IRQHandler
DMATRERR_Addr:	.word	DMATRERRIRQHandler
TIM1_Addr:		.word	TIM1IRQHandler
TIM2_Addr:		.word	TIM2IRQHandler
TIM3_Addr:		.word	TIM3IRQHandler
TIM4_Addr:		.word	TIM4IRQHandler
TB0_Addr:		.word	TB0IRQHandler
TB1_Addr:		.word	TB1IRQHandler
TB2_Addr:		.word	TB2IRQHandler
TIM5_Addr:		.word	TIM5IRQHandler
TIM6_Addr:		.word	TIM6IRQHandler
TIM7_Addr:		.word	TIM7IRQHandler
TIM8_Addr:		.word	TIM8IRQHandler
TIM9_Addr:		.word	TIM9IRQHandler
				.word	0				/* reserved */
				.word	0				/* reserved */
UART2_Addr:		.word	UART2IRQHandler
UART3_Addr:		.word	UART3IRQHandler
FlashEOP_Addr:	.word	FLASHEOPIRQHandler
PWM0_Addr:		.word	PWM0IRQHandler
PWM1_Addr:		.word	PWM1IRQHandler
PWM2_Addr:		.word	PWM2IRQHandler
PWM3_Addr:		.word	PWM3IRQHandler
PWM4_Addr:		.word	PWM4IRQHandler
PWM5_Addr:		.word	PWM5IRQHandler
WIUI_Addr:		.word	WIUIRQHandler
WDGWUT_Addr:	.word	WDGWUTIRQHandler
BSPI0_Addr:		.word	BSPI0IRQHandler
BSPI1_Addr:		.word	BSPI1IRQHandler
BSPI2_Addr:		.word	BSPI2IRQHandler
UART0_Addr:		.word	UART0IRQHandler
UART1_Addr:		.word	UART1IRQHandler
I2C0ITERR_Addr:	.word	I2C0ITERRIRQHandler
I2C1ITERR_Addr:	.word	I2C1ITERRIRQHandler
				.word	0				/* reserved */
				.word	0				/* reserved */
I2C0ITDDC_Addr:	.word	I2C0ITDDCIRQHandler
I2C1ITDDC_Addr:	.word	I2C1ITDDCIRQHandler
				.word	0				/* reserved */
				.word	0				/* reserved */
CAN0_Addr:		.word	CAN0IRQHandler
CAN1_Addr:		.word	CAN1IRQHandler
CAN2_Addr:		.word	CAN2IRQHandler
DMA0_Addr:		.word	DMA0IRQHandler
DMA1_Addr:		.word	DMA1IRQHandler
DMA2_Addr:		.word	DMA2IRQHandler
DMA3_Addr:		.word	DMA3IRQHandler
ADC_Addr:		.word	ADCIRQHandler
RTC_Addr:		.word	RTCIRQHandler

/*******************************************************************************
                         Exception Handlers
*******************************************************************************/

.ifeq HIRAM
	.section .text, "ax"
.endif

/*******************************************************************************
* macro for long jump from ram-rom if handlers are
* located in ram and are thumb mode
*******************************************************************************/

.macro	mBLX brAddr
	.ifeq HIRAM
		BL		\brAddr
	.else
		LDR		r0,=\brAddr
		MOV		lr, pc
		BX		r0
	.endif
.endm

/*******************************************************************************
* Macro Name     : SaveContext
* Description    : This macro used to save the context before entering
                   an exception handler.
* Input          : The range of registers to store.
* Output         : none
*******************************************************************************/

.macro	SaveContext reg1 reg2
		STMFD	sp!,{\reg1-\reg2,lr}	/* Save The workspace plus the current return */
										/* address lr_ mode into the stack */
		MRS		r1, spsr				/* Save the spsr_mode into r1 */
		STMFD	sp!, {r1}				/* Save spsr */
.endm

/*******************************************************************************
* Macro Name     : RestoreContext
* Description    : This macro used to restore the context to return from
                   an exception handler and continue the program execution.
* Input          : The range of registers to restore.
* Output         : none
*******************************************************************************/

.macro	RestoreContext reg1 reg2
		LDMFD	sp!, {r1}				/* Restore the saved spsr_mode into r1 */
		MSR		spsr_cxsf, r1			/* Restore spsr_mode */
		LDMFD	sp!, {\reg1-\reg2,pc}^	/* Return to the instruction following */
										/* the exception interrupt */
.endm

/*******************************************************************************
* Function Name  : IRQHandler
* Description    : This function called when IRQ exception is entered.
* Input          : none
* Output         : none
*******************************************************************************/

IRQHandler:
		SUB		lr, lr, #4				/* Update the link register */
80000348:	e24ee004 	sub	lr, lr, #4	; 0x4
		SaveContext r0, r12
8000034c:	e92d5fff 	stmdb	sp!, {r0, r1, r2, r3, r4, r5, r6, r7, r8, r9, sl, fp, ip, lr}
80000350:	e14f1000 	mrs	r1, SPSR
80000354:	e92d0002 	stmdb	sp!, {r1}
		LDR		lr, =ReturnAddress		/* Read the return address. */
80000358:	e59fe640 	ldr	lr, [pc, #1600]	; 800009a0 <.text+0x9a0>
		LDR		r0, =EIC_base_addr
8000035c:	e59f0640 	ldr	r0, [pc, #1600]	; 800009a4 <.text+0x9a4>
		LDR		r1, =IVR_off_addr
80000360:	e3a01018 	mov	r1, #24	; 0x18
		ADD		pc, r0, r1				/* Branch to the IRQ handler. */
80000364:	e080f001 	add	pc, r0, r1

80000368 <ReturnAddress>:
ReturnAddress:
										/* Clear pending bit in EIC (using the proper IPRx) */
		LDR		r0, =EIC_base_addr
80000368:	e59f0634 	ldr	r0, [pc, #1588]	; 800009a4 <.text+0x9a4>
		LDR		r2, [r0, #CICR_off_addr]/* Get the IRQ channel number. */
8000036c:	e5902004 	ldr	r2, [r0, #4]
		CMP		r2, #31
80000370:	e352001f 	cmp	r2, #31	; 0x1f
		SUBHI	r2, r2, #32
80000374:	82422020 	subhi	r2, r2, #32	; 0x20
		MOV		r3, #1
80000378:	e3a03001 	mov	r3, #1	; 0x1
		MOV		r3, r3, LSL r2
8000037c:	e1a03213 	mov	r3, r3, lsl r2
        STRHI	r3, [r0, #IPR1_off_addr] /* Clear the corresponding IPR bit. */
80000380:	85803044 	strhi	r3, [r0, #68]
        STRLS	r3, [r0, #IPR0_off_addr] /* Clear the corresponding IPR bit. */
80000384:	95803040 	strls	r3, [r0, #64]
		RestoreContext r0, r12
80000388:	e8bd0002 	ldmia	sp!, {r1}
8000038c:	e16ff001 	msr	SPSR_fsxc, r1
80000390:	e8fd9fff 	ldmia	sp!, {r0, r1, r2, r3, r4, r5, r6, r7, r8, r9, sl, fp, ip, pc}^

80000394 <SWIHandler>:

/*******************************************************************************
* Function Name  : SWIHandler
* Description    : This function called when SWI instruction executed.
* Input          : none
* Output         : none
*******************************************************************************/

SWIHandler:
		SaveContext r0, r12			/* r0 holds swi number */
80000394:	e92d5fff 	stmdb	sp!, {r0, r1, r2, r3, r4, r5, r6, r7, r8, r9, sl, fp, ip, lr}
80000398:	e14f1000 	mrs	r1, SPSR
8000039c:	e92d0002 	stmdb	sp!, {r1}
		MOV 	r1, sp				/* load regs */
800003a0:	e1a0100d 	mov	r1, sp
		mBLX	SWI_Handler
800003a4:	eb000187 	bl	800009c8 <SWI_Handler>
		RestoreContext r0, r12
800003a8:	e8bd0002 	ldmia	sp!, {r1}
800003ac:	e16ff001 	msr	SPSR_fsxc, r1
800003b0:	e8fd9fff 	ldmia	sp!, {r0, r1, r2, r3, r4, r5, r6, r7, r8, r9, sl, fp, ip, pc}^

800003b4 <UndefinedHandler>:

/*******************************************************************************
* Function Name  : UndefinedHandler
* Description    : This function called when undefined instruction
                   exception is entered.
* Input          : none
* Output         : none
*******************************************************************************/

UndefinedHandler:
		SaveContext r0, r12
800003b4:	e92d5fff 	stmdb	sp!, {r0, r1, r2, r3, r4, r5, r6, r7, r8, r9, sl, fp, ip, lr}
800003b8:	e14f1000 	mrs	r1, SPSR
800003bc:	e92d0002 	stmdb	sp!, {r1}
		mBLX	Undefined_Handler
800003c0:	eb000178 	bl	800009a8 <Undefined_Handler>
		RestoreContext r0, r12
800003c4:	e8bd0002 	ldmia	sp!, {r1}
800003c8:	e16ff001 	msr	SPSR_fsxc, r1
800003cc:	e8fd9fff 	ldmia	sp!, {r0, r1, r2, r3, r4, r5, r6, r7, r8, r9, sl, fp, ip, pc}^

800003d0 <PrefetchHandler>:

/*******************************************************************************
* Function Name  : PrefetchAbortHandler
* Description    : This function called when Prefetch Abort
                   exception is entered.
* Input          : none
* Output         : none
*******************************************************************************/

PrefetchHandler:
		SUB		lr, lr, #4			/* Update the link register. */
800003d0:	e24ee004 	sub	lr, lr, #4	; 0x4
		SaveContext r0, r12
800003d4:	e92d5fff 	stmdb	sp!, {r0, r1, r2, r3, r4, r5, r6, r7, r8, r9, sl, fp, ip, lr}
800003d8:	e14f1000 	mrs	r1, SPSR
800003dc:	e92d0002 	stmdb	sp!, {r1}
		mBLX	Prefetch_Handler
800003e0:	eb00017c 	bl	800009d8 <Prefetch_Handler>
		RestoreContext r0, r12
800003e4:	e8bd0002 	ldmia	sp!, {r1}
800003e8:	e16ff001 	msr	SPSR_fsxc, r1
800003ec:	e8fd9fff 	ldmia	sp!, {r0, r1, r2, r3, r4, r5, r6, r7, r8, r9, sl, fp, ip, pc}^

800003f0 <AbortHandler>:

/*******************************************************************************
* Function Name  : DataAbortHandler
* Description    : This function is called when Data Abort
                   exception is entered.
* Input          : none
* Output         : none
*******************************************************************************/

AbortHandler:
		SUB		lr, lr, #8			/* Update the link register. */
800003f0:	e24ee008 	sub	lr, lr, #8	; 0x8
		SaveContext r0, r12
800003f4:	e92d5fff 	stmdb	sp!, {r0, r1, r2, r3, r4, r5, r6, r7, r8, r9, sl, fp, ip, lr}
800003f8:	e14f1000 	mrs	r1, SPSR
800003fc:	e92d0002 	stmdb	sp!, {r1}
		mBLX	Abort_Handler
80000400:	eb000178 	bl	800009e8 <Abort_Handler>
		RestoreContext r0, r12
80000404:	e8bd0002 	ldmia	sp!, {r1}
80000408:	e16ff001 	msr	SPSR_fsxc, r1
8000040c:	e8fd9fff 	ldmia	sp!, {r0, r1, r2, r3, r4, r5, r6, r7, r8, r9, sl, fp, ip, pc}^

80000410 <FIQHandler>:

/*******************************************************************************
* Function Name  : FIQHandler
* Description    : This function is called when FIQ
                   exception is entered.
* Input          : none
* Output         : none
*******************************************************************************/

FIQHandler:
		SUB		lr, lr, #4			/* Update the link register. */
80000410:	e24ee004 	sub	lr, lr, #4	; 0x4
		SaveContext r0, r7
80000414:	e92d40ff 	stmdb	sp!, {r0, r1, r2, r3, r4, r5, r6, r7, lr}
80000418:	e14f1000 	mrs	r1, SPSR
8000041c:	e92d0002 	stmdb	sp!, {r1}
		mBLX	FIQ_Handler
80000420:	eb000164 	bl	800009b8 <FIQ_Handler>
		RestoreContext r0, r7
80000424:	e8bd0002 	ldmia	sp!, {r1}
80000428:	e16ff001 	msr	SPSR_fsxc, r1
8000042c:	e8fd80ff 	ldmia	sp!, {r0, r1, r2, r3, r4, r5, r6, r7, pc}^

80000430 <PRCCUCMUIRQHandler>:
	
/*******************************************************************************
* Macro Name     : IRQ_to_SYS
* Description    : This macro used to switch form IRQ mode to SYS mode
* Input          : none.
* Output         : none
*******************************************************************************/

	.macro	IRQ_to_SYS
		MSR		cpsr_c, #0x1F	/* Switch to SYS mode */
		STMFD	sp!, {lr}		/* Save the link register. */
	.endm

/*******************************************************************************
* Macro Name     : SYS_to_IRQ
* Description    : This macro used to switch from SYS mode to IRQ mode
                   then to return to IRQHnadler routine.
* Input          : none.
* Output         : none.
*******************************************************************************/

	.macro	SYS_to_IRQ
		LDMFD	sp!, {lr}		/* Restore the link register. */
		MSR		cpsr_c, #0xD2	/* Switch to IRQ mode. */
		MOV		pc, lr			/* Return to IRQHandler routine to clear the */
								/* pending bit. */
	.endm

/*******************************************************************************
* Function Name  : PRCCUCMUIRQHandler
* Description    : This PRCCUCMUIRQHandler used to switch to SYS mode before entering
                   the T0TIMI_IRQHandler function
                   Then to return to IRQ mode after the
                   PRCCUCMUIRQHandler function termination.
* Input          : none.
* Output         : none.
*******************************************************************************/

PRCCUCMUIRQHandler:
		IRQ_to_SYS
80000430:	e321f01f 	msr	CPSR_c, #31	; 0x1f
80000434:	e92d4000 	stmdb	sp!, {lr}
		mBLX	PRCCUCMU_IRQHandler
80000438:	eb00016e 	bl	800009f8 <PRCCUCMU_IRQHandler>
		SYS_to_IRQ
8000043c:	e8bd4000 	ldmia	sp!, {lr}
80000440:	e321f0d2 	msr	CPSR_c, #210	; 0xd2
80000444:	e1a0f00e 	mov	pc, lr

80000448 <EXTIT01IRQHandler>:

/*******************************************************************************
* Function Name  : EXTIT01IRQHandler
* Description    : This function used to switch to SYS mode before entering
                   the EXTIT01_IRQHandler function
                   Then to return to IRQ mode after the
                   EXTIT01_IRQHandler function termination.
* Input          : none
* Output         : none
*******************************************************************************/

EXTIT01IRQHandler:
		IRQ_to_SYS
80000448:	e321f01f 	msr	CPSR_c, #31	; 0x1f
8000044c:	e92d4000 	stmdb	sp!, {lr}
		mBLX	EXTIT01_IRQHandler
80000450:	eb00016c 	bl	80000a08 <EXTIT01_IRQHandler>
		SYS_to_IRQ
80000454:	e8bd4000 	ldmia	sp!, {lr}
80000458:	e321f0d2 	msr	CPSR_c, #210	; 0xd2
8000045c:	e1a0f00e 	mov	pc, lr

80000460 <EXTIT02IRQHandler>:

/*******************************************************************************
* Function Name  : EXTIT02IRQHandler
* Description    : This function used to switch to SYS mode before entering
                   the EXTIT02_IRQHandler function
                   Then to return to IRQ mode after the
                   EXTIT02_IRQHandler function termination.
* Input          : none
* Output         : none
*******************************************************************************/

EXTIT02IRQHandler:
		IRQ_to_SYS
80000460:	e321f01f 	msr	CPSR_c, #31	; 0x1f
80000464:	e92d4000 	stmdb	sp!, {lr}
		mBLX	EXTIT02_IRQHandler
80000468:	eb00016a 	bl	80000a18 <EXTIT02_IRQHandler>
		SYS_to_IRQ
8000046c:	e8bd4000 	ldmia	sp!, {lr}
80000470:	e321f0d2 	msr	CPSR_c, #210	; 0xd2
80000474:	e1a0f00e 	mov	pc, lr

80000478 <EXTIT03IRQHandler>:

/*******************************************************************************
* Function Name  : EXTIT03IRQHandler
* Description    : This function used to switch to SYS mode before entering
                   the EXTIT03_IRQHandler function
                   Then to return to IRQ mode after the
                   EXTIT03_IRQHandler function termination.
* Input          : none
* Output         : none
*******************************************************************************/

EXTIT03IRQHandler:
		IRQ_to_SYS
80000478:	e321f01f 	msr	CPSR_c, #31	; 0x1f
8000047c:	e92d4000 	stmdb	sp!, {lr}
		mBLX	EXTIT03_IRQHandler
80000480:	eb000168 	bl	80000a28 <EXTIT03_IRQHandler>
		SYS_to_IRQ
80000484:	e8bd4000 	ldmia	sp!, {lr}
80000488:	e321f0d2 	msr	CPSR_c, #210	; 0xd2
8000048c:	e1a0f00e 	mov	pc, lr

80000490 <EXTIT04IRQHandler>:

/*******************************************************************************
* Function Name  : EXTIT04IRQHandler
* Description    : This function used to switch to SYS mode before entering
                   the EXTIT04_IRQHandler function
                   Then to return to IRQ mode after the
                   EXTIT04_IRQHandler function termination.
* Input          : none
* Output         : none
*******************************************************************************/

EXTIT04IRQHandler:
		IRQ_to_SYS
80000490:	e321f01f 	msr	CPSR_c, #31	; 0x1f
80000494:	e92d4000 	stmdb	sp!, {lr}
		mBLX	EXTIT04_IRQHandler
80000498:	eb000166 	bl	80000a38 <EXTIT04_IRQHandler>
		SYS_to_IRQ
8000049c:	e8bd4000 	ldmia	sp!, {lr}
800004a0:	e321f0d2 	msr	CPSR_c, #210	; 0xd2
800004a4:	e1a0f00e 	mov	pc, lr

800004a8 <EXTIT05IRQHandler>:

/*******************************************************************************
* Function Name  : EXTIT05IRQHandler
* Description    : This function used to switch to SYS mode before entering
                   the EXTIT05_IRQHandler function
                   Then to return to IRQ mode after the
                   EXTIT05_IRQHandler function termination.
* Input          : none
* Output         : none
*******************************************************************************/

EXTIT05IRQHandler:
		IRQ_to_SYS
800004a8:	e321f01f 	msr	CPSR_c, #31	; 0x1f
800004ac:	e92d4000 	stmdb	sp!, {lr}
		mBLX	EXTIT05_IRQHandler
800004b0:	eb000164 	bl	80000a48 <EXTIT05_IRQHandler>
		SYS_to_IRQ
800004b4:	e8bd4000 	ldmia	sp!, {lr}
800004b8:	e321f0d2 	msr	CPSR_c, #210	; 0xd2
800004bc:	e1a0f00e 	mov	pc, lr

800004c0 <EXTIT06IRQHandler>:

/*******************************************************************************
* Function Name  : EXTIT06IRQHandler
* Description    : This function used to switch to SYS mode before entering
                   the EXTIT06_IRQHandler function
                   Then to return to IRQ mode after the
                   EXTIT06_IRQHandler function termination.
* Input          : none
* Output         : none
*******************************************************************************/

EXTIT06IRQHandler:
		IRQ_to_SYS
800004c0:	e321f01f 	msr	CPSR_c, #31	; 0x1f
800004c4:	e92d4000 	stmdb	sp!, {lr}
		mBLX	EXTIT06_IRQHandler
800004c8:	eb000162 	bl	80000a58 <EXTIT06_IRQHandler>
		SYS_to_IRQ
800004cc:	e8bd4000 	ldmia	sp!, {lr}
800004d0:	e321f0d2 	msr	CPSR_c, #210	; 0xd2
800004d4:	e1a0f00e 	mov	pc, lr

800004d8 <EXTIT07IRQHandler>:

/*******************************************************************************
* Function Name  : EXTIT07IRQHandler
* Description    : This function used to switch to SYS mode before entering
                   the EXTIT07_IRQHandler function
                   Then to return to IRQ mode after the
                   EXTIT07_IRQHandler function termination.
* Input          : none
* Output         : none
*******************************************************************************/

EXTIT07IRQHandler:
		IRQ_to_SYS
800004d8:	e321f01f 	msr	CPSR_c, #31	; 0x1f
800004dc:	e92d4000 	stmdb	sp!, {lr}
		mBLX	EXTIT07_IRQHandler
800004e0:	eb000160 	bl	80000a68 <EXTIT07_IRQHandler>
		SYS_to_IRQ
800004e4:	e8bd4000 	ldmia	sp!, {lr}
800004e8:	e321f0d2 	msr	CPSR_c, #210	; 0xd2
800004ec:	e1a0f00e 	mov	pc, lr

800004f0 <EXTIT08IRQHandler>:

/*******************************************************************************
* Function Name  : EXTIT08IRQHandler
* Description    : This function used to switch to SYS mode before entering
                   the EXTIT08_IRQHandler function
                   Then to return to IRQ mode after the
                   EXTIT08_IRQHandler function termination.
* Input          : none
* Output         : none
*******************************************************************************/

EXTIT08IRQHandler:
		IRQ_to_SYS
800004f0:	e321f01f 	msr	CPSR_c, #31	; 0x1f
800004f4:	e92d4000 	stmdb	sp!, {lr}
		mBLX	EXTIT08_IRQHandler
800004f8:	eb00015e 	bl	80000a78 <EXTIT08_IRQHandler>
		SYS_to_IRQ
800004fc:	e8bd4000 	ldmia	sp!, {lr}
80000500:	e321f0d2 	msr	CPSR_c, #210	; 0xd2
80000504:	e1a0f00e 	mov	pc, lr

80000508 <EXTIT09IRQHandler>:

/*******************************************************************************
* Function Name  : EXTIT09IRQHandler
* Description    : This function used to switch to SYS mode before entering
                   the EXTIT09_IRQHandler function
                   Then to return to IRQ mode after the
                   EXTIT09_IRQHandler function termination.
* Input          : none
* Output         : none
*******************************************************************************/

EXTIT09IRQHandler:
		IRQ_to_SYS
80000508:	e321f01f 	msr	CPSR_c, #31	; 0x1f
8000050c:	e92d4000 	stmdb	sp!, {lr}
		mBLX	EXTIT09_IRQHandler
80000510:	eb00015c 	bl	80000a88 <EXTIT09_IRQHandler>
		SYS_to_IRQ
80000514:	e8bd4000 	ldmia	sp!, {lr}
80000518:	e321f0d2 	msr	CPSR_c, #210	; 0xd2
8000051c:	e1a0f00e 	mov	pc, lr

80000520 <EXTIT10IRQHandler>:

/*******************************************************************************
* Function Name  : EXTIT10IRQHandler
* Description    : This function used to switch to SYS mode before entering
                   the EXTIT10_IRQHandler function
                   Then to return to IRQ mode after the
                   EXTIT10_IRQHandler function termination.
* Input          : none
* Output         : none
*******************************************************************************/

EXTIT10IRQHandler:
		IRQ_to_SYS
80000520:	e321f01f 	msr	CPSR_c, #31	; 0x1f
80000524:	e92d4000 	stmdb	sp!, {lr}
		mBLX	EXTIT10_IRQHandler
80000528:	eb00015a 	bl	80000a98 <EXTIT10_IRQHandler>
		SYS_to_IRQ
8000052c:	e8bd4000 	ldmia	sp!, {lr}
80000530:	e321f0d2 	msr	CPSR_c, #210	; 0xd2
80000534:	e1a0f00e 	mov	pc, lr

80000538 <EXTIT11IRQHandler>:

/*******************************************************************************
* Function Name  : EXTIT11IRQHandler
* Description    : This function used to switch to SYS mode before entering
                   the EXTIT11_IRQHandler function
                   Then to return to IRQ mode after the
                   EXTIT11_IRQHandler function termination.
* Input          : none
* Output         : none
*******************************************************************************/

EXTIT11IRQHandler:
		IRQ_to_SYS
80000538:	e321f01f 	msr	CPSR_c, #31	; 0x1f
8000053c:	e92d4000 	stmdb	sp!, {lr}
		mBLX	EXTIT11_IRQHandler
80000540:	eb000158 	bl	80000aa8 <EXTIT11_IRQHandler>
		SYS_to_IRQ
80000544:	e8bd4000 	ldmia	sp!, {lr}
80000548:	e321f0d2 	msr	CPSR_c, #210	; 0xd2
8000054c:	e1a0f00e 	mov	pc, lr

80000550 <EXTIT12IRQHandler>:

/*******************************************************************************
* Function Name  : EXTIT12IRQHandler
* Description    : This function used to switch to SYS mode before entering
                   the EXTIT12_IRQHandler function
                   Then to return to IRQ mode after the
                   EXTIT12_IRQHandler function termination.
* Input          : none
* Output         : none
*******************************************************************************/

EXTIT12IRQHandler:
		IRQ_to_SYS
80000550:	e321f01f 	msr	CPSR_c, #31	; 0x1f
80000554:	e92d4000 	stmdb	sp!, {lr}
		mBLX	EXTIT12_IRQHandler
80000558:	eb000156 	bl	80000ab8 <EXTIT12_IRQHandler>
		SYS_to_IRQ
8000055c:	e8bd4000 	ldmia	sp!, {lr}
80000560:	e321f0d2 	msr	CPSR_c, #210	; 0xd2
80000564:	e1a0f00e 	mov	pc, lr

80000568 <EXTIT13IRQHandler>:

/*******************************************************************************
* Function Name  : EXTIT13IRQHandler
* Description    : This function used to switch to SYS mode before entering
                   the EXTIT13_IRQHandler function
                   Then to return to IRQ mode after the
                   EXTIT13_IRQHandler function termination.
* Input          : none
* Output         : none
*******************************************************************************/

EXTIT13IRQHandler:
		IRQ_to_SYS
80000568:	e321f01f 	msr	CPSR_c, #31	; 0x1f
8000056c:	e92d4000 	stmdb	sp!, {lr}
		mBLX	EXTIT13_IRQHandler
80000570:	eb000154 	bl	80000ac8 <EXTIT13_IRQHandler>
		SYS_to_IRQ
80000574:	e8bd4000 	ldmia	sp!, {lr}
80000578:	e321f0d2 	msr	CPSR_c, #210	; 0xd2
8000057c:	e1a0f00e 	mov	pc, lr

80000580 <EXTIT14IRQHandler>:

/*******************************************************************************
* Function Name  : EXTIT14IRQHandler
* Description    : This function used to switch to SYS mode before entering
                   the EXTIT14_IRQHandler function
                   Then to return to IRQ mode after the
                   EXTIT14_IRQHandler function termination.
* Input          : none
* Output         : none
*******************************************************************************/

EXTIT14IRQHandler:
		IRQ_to_SYS
80000580:	e321f01f 	msr	CPSR_c, #31	; 0x1f
80000584:	e92d4000 	stmdb	sp!, {lr}
		mBLX	EXTIT14_IRQHandler
80000588:	eb000152 	bl	80000ad8 <EXTIT14_IRQHandler>
		SYS_to_IRQ
8000058c:	e8bd4000 	ldmia	sp!, {lr}
80000590:	e321f0d2 	msr	CPSR_c, #210	; 0xd2
80000594:	e1a0f00e 	mov	pc, lr

80000598 <EXTIT15IRQHandler>:

/*******************************************************************************
* Function Name  : EXTIT15IRQHandler
* Description    : This function used to switch to SYS mode before entering
                   the EXTIT15_IRQHandler function
                   Then to return to IRQ mode after the
                   EXTIT15_IRQHandler function termination.
* Input          : none
* Output         : none
*******************************************************************************/

EXTIT15IRQHandler:
		IRQ_to_SYS
80000598:	e321f01f 	msr	CPSR_c, #31	; 0x1f
8000059c:	e92d4000 	stmdb	sp!, {lr}
		mBLX	EXTIT15_IRQHandler
800005a0:	eb000150 	bl	80000ae8 <EXTIT15_IRQHandler>
		SYS_to_IRQ
800005a4:	e8bd4000 	ldmia	sp!, {lr}
800005a8:	e321f0d2 	msr	CPSR_c, #210	; 0xd2
800005ac:	e1a0f00e 	mov	pc, lr

800005b0 <DMATRERRIRQHandler>:

/*******************************************************************************
* Function Name  : DMATRERRIRQHandler
* Description    : This function used to switch to SYS mode before entering
                   the DMATRERR_IRQHandler function
                   Then to return to IRQ mode after the
                   DMATRERR_IRQHandler function termination.
* Input          : none
* Output         : none
*******************************************************************************/

DMATRERRIRQHandler:
		IRQ_to_SYS
800005b0:	e321f01f 	msr	CPSR_c, #31	; 0x1f
800005b4:	e92d4000 	stmdb	sp!, {lr}
		mBLX	DMATRERR_IRQHandler
800005b8:	eb00014e 	bl	80000af8 <DMATRERR_IRQHandler>
		SYS_to_IRQ
800005bc:	e8bd4000 	ldmia	sp!, {lr}
800005c0:	e321f0d2 	msr	CPSR_c, #210	; 0xd2
800005c4:	e1a0f00e 	mov	pc, lr

800005c8 <TIM1IRQHandler>:

/*******************************************************************************
* Function Name  : TIM1IRQHandler
* Description    : This function used to switch to SYS mode before entering
                   the TIM1_IRQHandler function
                   Then to return to IRQ mode after the
                   TIM1_IRQHandler function termination.
* Input          : none
* Output         : none
*******************************************************************************/

TIM1IRQHandler:
		IRQ_to_SYS
800005c8:	e321f01f 	msr	CPSR_c, #31	; 0x1f
800005cc:	e92d4000 	stmdb	sp!, {lr}
		mBLX	TIM1_IRQHandler
800005d0:	eb00014c 	bl	80000b08 <TIM1_IRQHandler>
		SYS_to_IRQ
800005d4:	e8bd4000 	ldmia	sp!, {lr}
800005d8:	e321f0d2 	msr	CPSR_c, #210	; 0xd2
800005dc:	e1a0f00e 	mov	pc, lr

800005e0 <TIM2IRQHandler>:

/*******************************************************************************
* Function Name  : TIM2IRQHandler
* Description    : This function used to switch to SYS mode before entering
                   the TIM2_IRQHandler function
                   Then to return to IRQ mode after the
                   TIM2_IRQHandler function termination.
* Input          : none
* Output         : none
*******************************************************************************/

TIM2IRQHandler:
		IRQ_to_SYS
800005e0:	e321f01f 	msr	CPSR_c, #31	; 0x1f
800005e4:	e92d4000 	stmdb	sp!, {lr}
		mBLX	TIM2_IRQHandler
800005e8:	eb00014a 	bl	80000b18 <TIM2_IRQHandler>
		SYS_to_IRQ
800005ec:	e8bd4000 	ldmia	sp!, {lr}
800005f0:	e321f0d2 	msr	CPSR_c, #210	; 0xd2
800005f4:	e1a0f00e 	mov	pc, lr

800005f8 <TIM3IRQHandler>:

/*******************************************************************************
* Function Name  : TIM3IRQHandler
* Description    : This function used to switch to SYS mode before entering
                   the TIM3_IRQHandler function
                   Then to return to IRQ mode after the
                   TIM3_IRQHandler function termination.
* Input          : none
* Output         : none
*******************************************************************************/

TIM3IRQHandler:
		IRQ_to_SYS
800005f8:	e321f01f 	msr	CPSR_c, #31	; 0x1f
800005fc:	e92d4000 	stmdb	sp!, {lr}
		mBLX	TIM3_IRQHandler
80000600:	eb000148 	bl	80000b28 <TIM3_IRQHandler>
		SYS_to_IRQ
80000604:	e8bd4000 	ldmia	sp!, {lr}
80000608:	e321f0d2 	msr	CPSR_c, #210	; 0xd2
8000060c:	e1a0f00e 	mov	pc, lr

80000610 <TIM4IRQHandler>:

/*******************************************************************************
* Function Name  : TIM4IRQHandler
* Description    : This function used to switch to SYS mode before entering
                   the TIM4_IRQHandler function
                   Then to return to IRQ mode after the
                   TIM4_IRQHandler function termination.
* Input          : none
* Output         : none
*******************************************************************************/

TIM4IRQHandler:
		IRQ_to_SYS
80000610:	e321f01f 	msr	CPSR_c, #31	; 0x1f
80000614:	e92d4000 	stmdb	sp!, {lr}
		mBLX	TIM4_IRQHandler
80000618:	eb000146 	bl	80000b38 <TIM4_IRQHandler>
		SYS_to_IRQ
8000061c:	e8bd4000 	ldmia	sp!, {lr}
80000620:	e321f0d2 	msr	CPSR_c, #210	; 0xd2
80000624:	e1a0f00e 	mov	pc, lr

80000628 <TB0IRQHandler>:

/*******************************************************************************
* Function Name  : TB0IRQHandler
* Description    : This function used to switch to SYS mode before entering
                   the TB0_IRQHandler function
                   Then to return to IRQ mode after the
                   TB0_IRQHandler function termination.
* Input          : none
* Output         : none
*******************************************************************************/

TB0IRQHandler:
		IRQ_to_SYS
80000628:	e321f01f 	msr	CPSR_c, #31	; 0x1f
8000062c:	e92d4000 	stmdb	sp!, {lr}
		mBLX	TB0_IRQHandler
80000630:	eb000144 	bl	80000b48 <TB0_IRQHandler>
		SYS_to_IRQ
80000634:	e8bd4000 	ldmia	sp!, {lr}
80000638:	e321f0d2 	msr	CPSR_c, #210	; 0xd2
8000063c:	e1a0f00e 	mov	pc, lr

80000640 <TB1IRQHandler>:

/*******************************************************************************
* Function Name  : TB1IRQHandler
* Description    : This function used to switch to SYS mode before entering
                   the TB1_IRQHandler function
                   Then to return to IRQ mode after the
                   TB1_IRQHandler function termination.
* Input          : none
* Output         : none
*******************************************************************************/

TB1IRQHandler:
		IRQ_to_SYS
80000640:	e321f01f 	msr	CPSR_c, #31	; 0x1f
80000644:	e92d4000 	stmdb	sp!, {lr}
		mBLX	TB1_IRQHandler
80000648:	eb000142 	bl	80000b58 <TB1_IRQHandler>
		SYS_to_IRQ
8000064c:	e8bd4000 	ldmia	sp!, {lr}
80000650:	e321f0d2 	msr	CPSR_c, #210	; 0xd2
80000654:	e1a0f00e 	mov	pc, lr

80000658 <TB2IRQHandler>:

/*******************************************************************************
* Function Name  : TB2IRQHandler
* Description    : This function used to switch to SYS mode before entering
                   the TB2_IRQHandler function
                   Then to return to IRQ mode after the
                   TB2_IRQHandler function termination.
* Input          : none
* Output         : none
*******************************************************************************/

TB2IRQHandler:
		IRQ_to_SYS
80000658:	e321f01f 	msr	CPSR_c, #31	; 0x1f
8000065c:	e92d4000 	stmdb	sp!, {lr}
		mBLX	TB2_IRQHandler
80000660:	eb000140 	bl	80000b68 <TB2_IRQHandler>
		SYS_to_IRQ
80000664:	e8bd4000 	ldmia	sp!, {lr}
80000668:	e321f0d2 	msr	CPSR_c, #210	; 0xd2
8000066c:	e1a0f00e 	mov	pc, lr

80000670 <TIM5IRQHandler>:

/*******************************************************************************
* Function Name  : TIM5IRQHandler
* Description    : This function used to switch to SYS mode before entering
                   the TIM5_IRQHandler function
                   Then to return to IRQ mode after the
                   TIM5_IRQHandler function termination.
* Input          : none
* Output         : none
*******************************************************************************/

TIM5IRQHandler:
		IRQ_to_SYS
80000670:	e321f01f 	msr	CPSR_c, #31	; 0x1f
80000674:	e92d4000 	stmdb	sp!, {lr}
		mBLX	TIM5_IRQHandler
80000678:	eb00013e 	bl	80000b78 <TIM5_IRQHandler>
		SYS_to_IRQ
8000067c:	e8bd4000 	ldmia	sp!, {lr}
80000680:	e321f0d2 	msr	CPSR_c, #210	; 0xd2
80000684:	e1a0f00e 	mov	pc, lr

80000688 <TIM6IRQHandler>:

/*******************************************************************************
* Function Name  : TIM6IRQHandler
* Description    : This function used to switch to SYS mode before entering
                   the TIM6_IRQHandler function
                   Then to return to IRQ mode after the
                   TIM6_IRQHandler function termination.
* Input          : none
* Output         : none
*******************************************************************************/

TIM6IRQHandler:
		IRQ_to_SYS
80000688:	e321f01f 	msr	CPSR_c, #31	; 0x1f
8000068c:	e92d4000 	stmdb	sp!, {lr}
		mBLX	TIM6_IRQHandler
80000690:	eb00013c 	bl	80000b88 <TIM6_IRQHandler>
		SYS_to_IRQ
80000694:	e8bd4000 	ldmia	sp!, {lr}
80000698:	e321f0d2 	msr	CPSR_c, #210	; 0xd2
8000069c:	e1a0f00e 	mov	pc, lr

800006a0 <TIM7IRQHandler>:

/*******************************************************************************
* Function Name  : TIM7IRQHandler
* Description    : This function used to switch to SYS mode before entering
                   the TIM7_IRQHandler function
                   Then to return to IRQ mode after the
                   TIM7_IRQHandler function termination.
* Input          : none
* Output         : none
*******************************************************************************/

TIM7IRQHandler:
		IRQ_to_SYS
800006a0:	e321f01f 	msr	CPSR_c, #31	; 0x1f
800006a4:	e92d4000 	stmdb	sp!, {lr}
		mBLX	TIM7_IRQHandler
800006a8:	eb00013a 	bl	80000b98 <TIM7_IRQHandler>
		SYS_to_IRQ
800006ac:	e8bd4000 	ldmia	sp!, {lr}
800006b0:	e321f0d2 	msr	CPSR_c, #210	; 0xd2
800006b4:	e1a0f00e 	mov	pc, lr

800006b8 <TIM8IRQHandler>:

/*******************************************************************************
* Function Name  : TIM8IRQHandler
* Description    : This function used to switch to SYS mode before entering
                   the TIM8_IRQHandler function
                   Then to return to IRQ mode after the
                   TIM8_IRQHandler function termination.
* Input          : none
* Output         : none
*******************************************************************************/

TIM8IRQHandler:
		IRQ_to_SYS
800006b8:	e321f01f 	msr	CPSR_c, #31	; 0x1f
800006bc:	e92d4000 	stmdb	sp!, {lr}
		mBLX	TIM8_IRQHandler
800006c0:	eb000138 	bl	80000ba8 <TIM8_IRQHandler>
		SYS_to_IRQ
800006c4:	e8bd4000 	ldmia	sp!, {lr}
800006c8:	e321f0d2 	msr	CPSR_c, #210	; 0xd2
800006cc:	e1a0f00e 	mov	pc, lr

800006d0 <TIM9IRQHandler>:
		
/*******************************************************************************
* Function Name  : TIM9IRQHandler
* Description    : This function used to switch to SYS mode before entering
                   the TIM9_IRQHandler function
                   Then to return to IRQ mode after the
                   TIM9_IRQHandler function termination.
* Input          : none
* Output         : none
*******************************************************************************/

TIM9IRQHandler:
		IRQ_to_SYS
800006d0:	e321f01f 	msr	CPSR_c, #31	; 0x1f
800006d4:	e92d4000 	stmdb	sp!, {lr}
		mBLX	TIM9_IRQHandler
800006d8:	eb000136 	bl	80000bb8 <TIM9_IRQHandler>
		SYS_to_IRQ
800006dc:	e8bd4000 	ldmia	sp!, {lr}
800006e0:	e321f0d2 	msr	CPSR_c, #210	; 0xd2
800006e4:	e1a0f00e 	mov	pc, lr

800006e8 <UART2IRQHandler>:

/*******************************************************************************
* Function Name  : UART2IRQHandler
* Description    : This function used to switch to SYS mode before entering
                   the UART2_IRQHandler function
                   Then to return to IRQ mode after the
                   UART2_IRQHandler function termination.
* Input          : none
* Output         : none
*******************************************************************************/

UART2IRQHandler:
		IRQ_to_SYS
800006e8:	e321f01f 	msr	CPSR_c, #31	; 0x1f
800006ec:	e92d4000 	stmdb	sp!, {lr}
		mBLX	UART2_IRQHandler
800006f0:	eb000134 	bl	80000bc8 <UART2_IRQHandler>
		SYS_to_IRQ
800006f4:	e8bd4000 	ldmia	sp!, {lr}
800006f8:	e321f0d2 	msr	CPSR_c, #210	; 0xd2
800006fc:	e1a0f00e 	mov	pc, lr

80000700 <UART3IRQHandler>:

/*******************************************************************************
* Function Name  : UART3IRQHandler
* Description    : This function used to switch to SYS mode before entering
                   the UART3_IRQHandler function
                   Then to return to IRQ mode after the
                   UART3_IRQHandler function termination.
* Input          : none
* Output         : none
*******************************************************************************/

UART3IRQHandler:
		IRQ_to_SYS
80000700:	e321f01f 	msr	CPSR_c, #31	; 0x1f
80000704:	e92d4000 	stmdb	sp!, {lr}
		mBLX	UART3_IRQHandler
80000708:	eb000132 	bl	80000bd8 <UART3_IRQHandler>
		SYS_to_IRQ
8000070c:	e8bd4000 	ldmia	sp!, {lr}
80000710:	e321f0d2 	msr	CPSR_c, #210	; 0xd2
80000714:	e1a0f00e 	mov	pc, lr

80000718 <FLASHEOPIRQHandler>:
		
/*******************************************************************************
* Function Name  : FLASHEOPIRQHandler
* Description    : This function used to switch to SYS mode before entering
                   the FLASHEOP_IRQHandler function
                   Then to return to IRQ mode after the
                   FLASHEOP_IRQHandler function termination.
* Input          : none
* Output         : none
*******************************************************************************/

FLASHEOPIRQHandler:
		IRQ_to_SYS
80000718:	e321f01f 	msr	CPSR_c, #31	; 0x1f
8000071c:	e92d4000 	stmdb	sp!, {lr}
		mBLX	FLASHEOP_IRQHandler
80000720:	eb000130 	bl	80000be8 <FLASHEOP_IRQHandler>
		SYS_to_IRQ
80000724:	e8bd4000 	ldmia	sp!, {lr}
80000728:	e321f0d2 	msr	CPSR_c, #210	; 0xd2
8000072c:	e1a0f00e 	mov	pc, lr

80000730 <PWM0IRQHandler>:
		
/*******************************************************************************
* Function Name  : PWM0IRQHandler
* Description    : This function used to switch to SYS mode before entering
                   the PWM0_IRQHandler function
                   Then to return to IRQ mode after the
                   PWM0_IRQHandler function termination.
* Input          : none
* Output         : none
*******************************************************************************/

PWM0IRQHandler:
		IRQ_to_SYS
80000730:	e321f01f 	msr	CPSR_c, #31	; 0x1f
80000734:	e92d4000 	stmdb	sp!, {lr}
		mBLX	PWM0_IRQHandler
80000738:	eb00012e 	bl	80000bf8 <PWM0_IRQHandler>
		SYS_to_IRQ
8000073c:	e8bd4000 	ldmia	sp!, {lr}
80000740:	e321f0d2 	msr	CPSR_c, #210	; 0xd2
80000744:	e1a0f00e 	mov	pc, lr

80000748 <PWM1IRQHandler>:
		
/*******************************************************************************
* Function Name  : PWM1IRQHandler
* Description    : This function used to switch to SYS mode before entering
                   the PWM1_IRQHandler function
                   Then to return to IRQ mode after the
                   PWM1_IRQHandler function termination.
* Input          : none
* Output         : none
*******************************************************************************/

PWM1IRQHandler:
		IRQ_to_SYS
80000748:	e321f01f 	msr	CPSR_c, #31	; 0x1f
8000074c:	e92d4000 	stmdb	sp!, {lr}
		mBLX	PWM1_IRQHandler
80000750:	eb00012c 	bl	80000c08 <PWM1_IRQHandler>
		SYS_to_IRQ
80000754:	e8bd4000 	ldmia	sp!, {lr}
80000758:	e321f0d2 	msr	CPSR_c, #210	; 0xd2
8000075c:	e1a0f00e 	mov	pc, lr

80000760 <PWM2IRQHandler>:
		
/*******************************************************************************
* Function Name  : PWM2IRQHandler
* Description    : This function used to switch to SYS mode before entering
                   the PWM2_IRQHandler function
                   Then to return to IRQ mode after the
                   PWM2_IRQHandler function termination.
* Input          : none
* Output         : none
*******************************************************************************/

PWM2IRQHandler:
		IRQ_to_SYS
80000760:	e321f01f 	msr	CPSR_c, #31	; 0x1f
80000764:	e92d4000 	stmdb	sp!, {lr}
		mBLX	PWM2_IRQHandler
80000768:	eb00012a 	bl	80000c18 <PWM2_IRQHandler>
		SYS_to_IRQ
8000076c:	e8bd4000 	ldmia	sp!, {lr}
80000770:	e321f0d2 	msr	CPSR_c, #210	; 0xd2
80000774:	e1a0f00e 	mov	pc, lr

80000778 <PWM3IRQHandler>:
		
/*******************************************************************************
* Function Name  : PWM3IRQHandler
* Description    : This function used to switch to SYS mode before entering
                   the PWM3_IRQHandler function
                   Then to return to IRQ mode after the
                   PWM3_IRQHandler function termination.
* Input          : none
* Output         : none
*******************************************************************************/

PWM3IRQHandler:
		IRQ_to_SYS
80000778:	e321f01f 	msr	CPSR_c, #31	; 0x1f
8000077c:	e92d4000 	stmdb	sp!, {lr}
		mBLX	PWM3_IRQHandler
80000780:	eb000128 	bl	80000c28 <PWM3_IRQHandler>
		SYS_to_IRQ
80000784:	e8bd4000 	ldmia	sp!, {lr}
80000788:	e321f0d2 	msr	CPSR_c, #210	; 0xd2
8000078c:	e1a0f00e 	mov	pc, lr

80000790 <PWM4IRQHandler>:
		
/*******************************************************************************
* Function Name  : PWM4IRQHandler
* Description    : This function used to switch to SYS mode before entering
                   the PWM4_IRQHandler function
                   Then to return to IRQ mode after the
                   PWM4_IRQHandler function termination.
* Input          : none
* Output         : none
*******************************************************************************/

PWM4IRQHandler:
		IRQ_to_SYS
80000790:	e321f01f 	msr	CPSR_c, #31	; 0x1f
80000794:	e92d4000 	stmdb	sp!, {lr}
		mBLX	PWM4_IRQHandler
80000798:	eb000126 	bl	80000c38 <PWM4_IRQHandler>
		SYS_to_IRQ
8000079c:	e8bd4000 	ldmia	sp!, {lr}
800007a0:	e321f0d2 	msr	CPSR_c, #210	; 0xd2
800007a4:	e1a0f00e 	mov	pc, lr

800007a8 <PWM5IRQHandler>:
		
/*******************************************************************************
* Function Name  : PWM5IRQHandler
* Description    : This function used to switch to SYS mode before entering
                   the PWM5_IRQHandler function
                   Then to return to IRQ mode after the
                   PWM5_IRQHandler function termination.
* Input          : none
* Output         : none
*******************************************************************************/

PWM5IRQHandler:
		IRQ_to_SYS
800007a8:	e321f01f 	msr	CPSR_c, #31	; 0x1f
800007ac:	e92d4000 	stmdb	sp!, {lr}
		mBLX	PWM5_IRQHandler
800007b0:	eb000124 	bl	80000c48 <PWM5_IRQHandler>
		SYS_to_IRQ
800007b4:	e8bd4000 	ldmia	sp!, {lr}
800007b8:	e321f0d2 	msr	CPSR_c, #210	; 0xd2
800007bc:	e1a0f00e 	mov	pc, lr

800007c0 <WIUIRQHandler>:
		
/*******************************************************************************
* Function Name  : WIUIRQHandler
* Description    : This function used to switch to SYS mode before entering
                   the WIU_IRQHandler function
                   Then to return to IRQ mode after the
                   WIU_IRQHandler function termination.
* Input          : none
* Output         : none
*******************************************************************************/

WIUIRQHandler:
		IRQ_to_SYS
800007c0:	e321f01f 	msr	CPSR_c, #31	; 0x1f
800007c4:	e92d4000 	stmdb	sp!, {lr}
		mBLX	WIU_IRQHandler
800007c8:	eb000122 	bl	80000c58 <WIU_IRQHandler>
		SYS_to_IRQ
800007cc:	e8bd4000 	ldmia	sp!, {lr}
800007d0:	e321f0d2 	msr	CPSR_c, #210	; 0xd2
800007d4:	e1a0f00e 	mov	pc, lr

800007d8 <WDGWUTIRQHandler>:
		
/*******************************************************************************
* Function Name  : WDGWUTIRQHandler
* Description    : This function used to switch to SYS mode before entering
                   the WDGWUT_IRQHandler function
                   Then to return to IRQ mode after the
                   WDGWUT_IRQHandler function termination.
* Input          : none
* Output         : none
*******************************************************************************/

WDGWUTIRQHandler:
		IRQ_to_SYS
800007d8:	e321f01f 	msr	CPSR_c, #31	; 0x1f
800007dc:	e92d4000 	stmdb	sp!, {lr}
		mBLX	WDGWUT_IRQHandler
800007e0:	eb000120 	bl	80000c68 <WDGWUT_IRQHandler>
		SYS_to_IRQ
800007e4:	e8bd4000 	ldmia	sp!, {lr}
800007e8:	e321f0d2 	msr	CPSR_c, #210	; 0xd2
800007ec:	e1a0f00e 	mov	pc, lr

800007f0 <BSPI0IRQHandler>:
		
/*******************************************************************************
* Function Name  : BSPI0IRQHandler
* Description    : This function used to switch to SYS mode before entering
                   the BSPI0_IRQHandler function
                   Then to return to IRQ mode after the
                   BSPI0_IRQHandler function termination.
* Input          : none
* Output         : none
*******************************************************************************/

BSPI0IRQHandler:
		IRQ_to_SYS
800007f0:	e321f01f 	msr	CPSR_c, #31	; 0x1f
800007f4:	e92d4000 	stmdb	sp!, {lr}
		mBLX	BSPI0_IRQHandler
800007f8:	eb00011e 	bl	80000c78 <BSPI0_IRQHandler>
		SYS_to_IRQ
800007fc:	e8bd4000 	ldmia	sp!, {lr}
80000800:	e321f0d2 	msr	CPSR_c, #210	; 0xd2
80000804:	e1a0f00e 	mov	pc, lr

80000808 <BSPI1IRQHandler>:
		
/*******************************************************************************
* Function Name  : BSPI1IRQHandler
* Description    : This function used to switch to SYS mode before entering
                   the BSPI1_IRQHandler function
                   Then to return to IRQ mode after the
                   BSPI1_IRQHandler function termination.
* Input          : none
* Output         : none
*******************************************************************************/

BSPI1IRQHandler:
		IRQ_to_SYS
80000808:	e321f01f 	msr	CPSR_c, #31	; 0x1f
8000080c:	e92d4000 	stmdb	sp!, {lr}
		mBLX	BSPI1_IRQHandler
80000810:	eb00011c 	bl	80000c88 <BSPI1_IRQHandler>
		SYS_to_IRQ
80000814:	e8bd4000 	ldmia	sp!, {lr}
80000818:	e321f0d2 	msr	CPSR_c, #210	; 0xd2
8000081c:	e1a0f00e 	mov	pc, lr

80000820 <BSPI2IRQHandler>:
		
/*******************************************************************************
* Function Name  : BSPI2IRQHandler
* Description    : This function used to switch to SYS mode before entering
                   the BSPI2_IRQHandler function
                   Then to return to IRQ mode after the
                   BSPI2_IRQHandler function termination.
* Input          : none
* Output         : none
*******************************************************************************/

BSPI2IRQHandler:
		IRQ_to_SYS
80000820:	e321f01f 	msr	CPSR_c, #31	; 0x1f
80000824:	e92d4000 	stmdb	sp!, {lr}
		mBLX	BSPI2_IRQHandler
80000828:	eb00011a 	bl	80000c98 <BSPI2_IRQHandler>
		SYS_to_IRQ
8000082c:	e8bd4000 	ldmia	sp!, {lr}
80000830:	e321f0d2 	msr	CPSR_c, #210	; 0xd2
80000834:	e1a0f00e 	mov	pc, lr

80000838 <UART0IRQHandler>:
		
/*******************************************************************************
* Function Name  : UART0IRQHandler
* Description    : This function used to switch to SYS mode before entering
                   the UART0_IRQHandler function
                   Then to return to IRQ mode after the
                   UART0_IRQHandler function termination.
* Input          : none
* Output         : none
*******************************************************************************/

UART0IRQHandler:
		IRQ_to_SYS
80000838:	e321f01f 	msr	CPSR_c, #31	; 0x1f
8000083c:	e92d4000 	stmdb	sp!, {lr}
		mBLX	UART0_IRQHandler
80000840:	eb000118 	bl	80000ca8 <UART0_IRQHandler>
		SYS_to_IRQ
80000844:	e8bd4000 	ldmia	sp!, {lr}
80000848:	e321f0d2 	msr	CPSR_c, #210	; 0xd2
8000084c:	e1a0f00e 	mov	pc, lr

80000850 <UART1IRQHandler>:
		
/*******************************************************************************
* Function Name  : UART1IRQHandler
* Description    : This function used to switch to SYS mode before entering
                   the UART1_IRQHandler function
                   Then to return to IRQ mode after the
                   UART1_IRQHandler function termination.
* Input          : none
* Output         : none
*******************************************************************************/

UART1IRQHandler:
		IRQ_to_SYS
80000850:	e321f01f 	msr	CPSR_c, #31	; 0x1f
80000854:	e92d4000 	stmdb	sp!, {lr}
		mBLX	UART1_IRQHandler
80000858:	eb000116 	bl	80000cb8 <UART1_IRQHandler>
		SYS_to_IRQ
8000085c:	e8bd4000 	ldmia	sp!, {lr}
80000860:	e321f0d2 	msr	CPSR_c, #210	; 0xd2
80000864:	e1a0f00e 	mov	pc, lr

80000868 <I2C0ITERRIRQHandler>:
		
/*******************************************************************************
* Function Name  : I2C0ITERRIRQHandler
* Description    : This function used to switch to SYS mode before entering
                   the I2C0ITERR_IRQHandler function
                   Then to return to IRQ mode after the
                   I2C0ITERR_IRQHandler function termination.
* Input          : none
* Output         : nonez
*******************************************************************************/

I2C0ITERRIRQHandler:
		IRQ_to_SYS
80000868:	e321f01f 	msr	CPSR_c, #31	; 0x1f
8000086c:	e92d4000 	stmdb	sp!, {lr}
		mBLX	I2C0ITERR_IRQHandler
80000870:	eb000114 	bl	80000cc8 <I2C0ITERR_IRQHandler>
		SYS_to_IRQ
80000874:	e8bd4000 	ldmia	sp!, {lr}
80000878:	e321f0d2 	msr	CPSR_c, #210	; 0xd2
8000087c:	e1a0f00e 	mov	pc, lr

80000880 <I2C1ITERRIRQHandler>:
		
/*******************************************************************************
* Function Name  : I2C1ITERRIRQHandler
* Description    : This function used to switch to SYS mode before entering
                   the I2C1ITERR_IRQHandler function
                   Then to return to IRQ mode after the
                   I2C1ITERR_IRQHandler function termination.
* Input          : none
* Output         : none
*******************************************************************************/

I2C1ITERRIRQHandler:
		IRQ_to_SYS
80000880:	e321f01f 	msr	CPSR_c, #31	; 0x1f
80000884:	e92d4000 	stmdb	sp!, {lr}
		mBLX	I2C1ITERR_IRQHandler
80000888:	eb000112 	bl	80000cd8 <I2C1ITERR_IRQHandler>
		SYS_to_IRQ
8000088c:	e8bd4000 	ldmia	sp!, {lr}
80000890:	e321f0d2 	msr	CPSR_c, #210	; 0xd2
80000894:	e1a0f00e 	mov	pc, lr

80000898 <I2C0ITDDCIRQHandler>:
		
/*******************************************************************************
* Function Name  : I2C0ITDDCIRQHandler
* Description    : This function used to switch to SYS mode before entering
                   the I2C0ITDDC_IRQHandler function
                   Then to return to IRQ mode after the
                   I2C0ITDDC_IRQHandler function termination.
* Input          : none
* Output         : none
*******************************************************************************/

I2C0ITDDCIRQHandler:
		IRQ_to_SYS
80000898:	e321f01f 	msr	CPSR_c, #31	; 0x1f
8000089c:	e92d4000 	stmdb	sp!, {lr}
		mBLX	I2C0ITDDC_IRQHandler
800008a0:	eb000110 	bl	80000ce8 <I2C0ITDDC_IRQHandler>
		SYS_to_IRQ
800008a4:	e8bd4000 	ldmia	sp!, {lr}
800008a8:	e321f0d2 	msr	CPSR_c, #210	; 0xd2
800008ac:	e1a0f00e 	mov	pc, lr

800008b0 <I2C1ITDDCIRQHandler>:
		
/*******************************************************************************
* Function Name  : I2C1ITDDCIRQHandler
* Description    : This function used to switch to SYS mode before entering
                   the I2C1ITDDC_IRQHandler function
                   Then to return to IRQ mode after the
                   I2C1ITDDC_IRQHandler function termination.
* Input          : none
* Output         : none
*******************************************************************************/

I2C1ITDDCIRQHandler:
		IRQ_to_SYS
800008b0:	e321f01f 	msr	CPSR_c, #31	; 0x1f
800008b4:	e92d4000 	stmdb	sp!, {lr}
		mBLX	I2C1ITDDC_IRQHandler
800008b8:	eb00010e 	bl	80000cf8 <I2C1ITDDC_IRQHandler>
		SYS_to_IRQ
800008bc:	e8bd4000 	ldmia	sp!, {lr}
800008c0:	e321f0d2 	msr	CPSR_c, #210	; 0xd2
800008c4:	e1a0f00e 	mov	pc, lr

800008c8 <CAN0IRQHandler>:
		
/*******************************************************************************
* Function Name  : CAN0IRQHandler
* Description    : This function used to switch to SYS mode before entering
                   the CAN0_IRQHandler function
                   Then to return to IRQ mode after the
                   CAN0_IRQHandler function termination.
* Input          : none
* Output         : none
*******************************************************************************/

CAN0IRQHandler:
		IRQ_to_SYS
800008c8:	e321f01f 	msr	CPSR_c, #31	; 0x1f
800008cc:	e92d4000 	stmdb	sp!, {lr}
		mBLX	CAN0_IRQHandler
800008d0:	eb00010c 	bl	80000d08 <CAN0_IRQHandler>
		SYS_to_IRQ
800008d4:	e8bd4000 	ldmia	sp!, {lr}
800008d8:	e321f0d2 	msr	CPSR_c, #210	; 0xd2
800008dc:	e1a0f00e 	mov	pc, lr

800008e0 <CAN1IRQHandler>:

/*******************************************************************************
* Function Name  : CAN1IRQHandler
* Description    : This function used to switch to SYS mode before entering
                   the CAN1_IRQHandler function
                   Then to return to IRQ mode after the
                   CAN1_IRQHandler function termination.
* Input          : none
* Output         : none
*******************************************************************************/

CAN1IRQHandler:
		IRQ_to_SYS
800008e0:	e321f01f 	msr	CPSR_c, #31	; 0x1f
800008e4:	e92d4000 	stmdb	sp!, {lr}
		mBLX	CAN1_IRQHandler
800008e8:	eb00010a 	bl	80000d18 <CAN1_IRQHandler>
		SYS_to_IRQ
800008ec:	e8bd4000 	ldmia	sp!, {lr}
800008f0:	e321f0d2 	msr	CPSR_c, #210	; 0xd2
800008f4:	e1a0f00e 	mov	pc, lr

800008f8 <CAN2IRQHandler>:

/*******************************************************************************
* Function Name  : CAN2IRQHandler
* Description    : This function used to switch to SYS mode before entering
                   the CAN2_IRQHandler function
                   Then to return to IRQ mode after the
                   CAN2_IRQHandler function termination.
* Input          : none
* Output         : none
*******************************************************************************/

CAN2IRQHandler:
		IRQ_to_SYS
800008f8:	e321f01f 	msr	CPSR_c, #31	; 0x1f
800008fc:	e92d4000 	stmdb	sp!, {lr}
		mBLX	CAN2_IRQHandler
80000900:	eb000108 	bl	80000d28 <CAN2_IRQHandler>
		SYS_to_IRQ
80000904:	e8bd4000 	ldmia	sp!, {lr}
80000908:	e321f0d2 	msr	CPSR_c, #210	; 0xd2
8000090c:	e1a0f00e 	mov	pc, lr

80000910 <DMA0IRQHandler>:

/*******************************************************************************
* Function Name  : DMA0IRQHandler
* Description    : This function used to switch to SYS mode before entering
                   the DMA0_IRQHandler function
                   Then to return to IRQ mode after the
                   DMA0_IRQHandler function termination.
* Input          : none
* Output         : none
*******************************************************************************/

DMA0IRQHandler:
		IRQ_to_SYS
80000910:	e321f01f 	msr	CPSR_c, #31	; 0x1f
80000914:	e92d4000 	stmdb	sp!, {lr}
		mBLX	DMA0_IRQHandler
80000918:	eb000106 	bl	80000d38 <DMA0_IRQHandler>
		SYS_to_IRQ
8000091c:	e8bd4000 	ldmia	sp!, {lr}
80000920:	e321f0d2 	msr	CPSR_c, #210	; 0xd2
80000924:	e1a0f00e 	mov	pc, lr

80000928 <DMA1IRQHandler>:

/*******************************************************************************
* Function Name  : DMA1IRQHandler
* Description    : This function used to switch to SYS mode before entering
                   the DMA1_IRQHandler function
                   Then to return to IRQ mode after the
                   DMA1_IRQHandler function termination.
* Input          : none
* Output         : none
*******************************************************************************/

DMA1IRQHandler:
		IRQ_to_SYS
80000928:	e321f01f 	msr	CPSR_c, #31	; 0x1f
8000092c:	e92d4000 	stmdb	sp!, {lr}
		mBLX	DMA1_IRQHandler
80000930:	eb000104 	bl	80000d48 <DMA1_IRQHandler>
		SYS_to_IRQ
80000934:	e8bd4000 	ldmia	sp!, {lr}
80000938:	e321f0d2 	msr	CPSR_c, #210	; 0xd2
8000093c:	e1a0f00e 	mov	pc, lr

80000940 <DMA2IRQHandler>:

/*******************************************************************************
* Function Name  : DMA2IRQHandler
* Description    : This function used to switch to SYS mode before entering
                   the DMA2_IRQHandler function
                   Then to return to IRQ mode after the
                   DMA2_IRQHandler function termination.
* Input          : none
* Output         : none
*******************************************************************************/

DMA2IRQHandler:
		IRQ_to_SYS
80000940:	e321f01f 	msr	CPSR_c, #31	; 0x1f
80000944:	e92d4000 	stmdb	sp!, {lr}
		mBLX	DMA2_IRQHandler
80000948:	eb000102 	bl	80000d58 <DMA2_IRQHandler>
		SYS_to_IRQ
8000094c:	e8bd4000 	ldmia	sp!, {lr}
80000950:	e321f0d2 	msr	CPSR_c, #210	; 0xd2
80000954:	e1a0f00e 	mov	pc, lr

80000958 <DMA3IRQHandler>:

/*******************************************************************************
* Function Name  : DMA3IRQHandler
* Description    : This function used to switch to SYS mode before entering
                   the DMA3_IRQHandler function
                   Then to return to IRQ mode after the
                   DMA3_IRQHandler function termination.
* Input          : none
* Output         : none
*******************************************************************************/

DMA3IRQHandler:
		IRQ_to_SYS
80000958:	e321f01f 	msr	CPSR_c, #31	; 0x1f
8000095c:	e92d4000 	stmdb	sp!, {lr}
		mBLX	DMA3_IRQHandler
80000960:	eb000100 	bl	80000d68 <DMA3_IRQHandler>
		SYS_to_IRQ
80000964:	e8bd4000 	ldmia	sp!, {lr}
80000968:	e321f0d2 	msr	CPSR_c, #210	; 0xd2
8000096c:	e1a0f00e 	mov	pc, lr

80000970 <ADCIRQHandler>:

/*******************************************************************************
* Function Name  : ADCIRQHandler
* Description    : This function used to switch to SYS mode before entering
                   the ADC_IRQHandler function
                   Then to return to IRQ mode after the
                   ADC_IRQHandler function termination.
* Input          : none
* Output         : none
*******************************************************************************/

ADCIRQHandler:
		IRQ_to_SYS
80000970:	e321f01f 	msr	CPSR_c, #31	; 0x1f
80000974:	e92d4000 	stmdb	sp!, {lr}
		mBLX	ADC_IRQHandler
80000978:	eb0000fe 	bl	80000d78 <ADC_IRQHandler>
		SYS_to_IRQ
8000097c:	e8bd4000 	ldmia	sp!, {lr}
80000980:	e321f0d2 	msr	CPSR_c, #210	; 0xd2
80000984:	e1a0f00e 	mov	pc, lr

80000988 <RTCIRQHandler>:

/*******************************************************************************
* Function Name  : RTCIRQHandler
* Description    : This function used to switch to SYS mode before entering
                   the RTC_IRQHandler function
                   Then to return to IRQ mode after the
                   RTC_IRQHandler function termination.
* Input          : none
* Output         : none
*******************************************************************************/

RTCIRQHandler:
		IRQ_to_SYS
80000988:	e321f01f 	msr	CPSR_c, #31	; 0x1f
8000098c:	e92d4000 	stmdb	sp!, {lr}
		mBLX	RTC_IRQHandler
80000990:	eb00010a 	bl	80000dc0 <RTC_IRQHandler>
		SYS_to_IRQ
80000994:	e8bd4000 	ldmia	sp!, {lr}
80000998:	e321f0d2 	msr	CPSR_c, #210	; 0xd2
8000099c:	e1a0f00e 	mov	pc, lr
800009a0:	80000368 	andhi	r0, r0, r8, ror #6
800009a4:	fffffc00 	undefined instruction 0xfffffc00

800009a8 <Undefined_Handler>:
* Output         : None
* Return         : None
*******************************************************************************/
void Undefined_Handler(void)
{
800009a8:	e1a0c00d 	mov	ip, sp
800009ac:	e92dd800 	stmdb	sp!, {fp, ip, lr, pc}
800009b0:	e24cb004 	sub	fp, ip, #4	; 0x4
	while(1);
800009b4:	eafffffe 	b	800009b4 <Undefined_Handler+0xc>

800009b8 <FIQ_Handler>:
}

/*******************************************************************************
* Function Name  : FIQ_Handler
* Description    : This function handles FIQ exception.
* Input          : None
* Output         : None
* Return         : None
*******************************************************************************/
void FIQ_Handler(void)
{
800009b8:	e1a0c00d 	mov	ip, sp
800009bc:	e92dd800 	stmdb	sp!, {fp, ip, lr, pc}
800009c0:	e24cb004 	sub	fp, ip, #4	; 0x4
	while(1);
800009c4:	eafffffe 	b	800009c4 <FIQ_Handler+0xc>

800009c8 <SWI_Handler>:
}

/*******************************************************************************
* Function Name  : SWI_Handler
* Description    : This function handles SW exception.
* Input          : None
* Output         : None
* Return         : None
*******************************************************************************/
void SWI_Handler(void)
{
800009c8:	e1a0c00d 	mov	ip, sp
800009cc:	e92dd800 	stmdb	sp!, {fp, ip, lr, pc}
800009d0:	e24cb004 	sub	fp, ip, #4	; 0x4
	while(1);
800009d4:	eafffffe 	b	800009d4 <SWI_Handler+0xc>

800009d8 <Prefetch_Handler>:
}

/*******************************************************************************
* Function Name  : Prefetch_Handler
* Description    : This function handles preftetch abort exception.
* Input          : None
* Output         : None
* Return         : None
*******************************************************************************/
void Prefetch_Handler(void)
{
800009d8:	e1a0c00d 	mov	ip, sp
800009dc:	e92dd800 	stmdb	sp!, {fp, ip, lr, pc}
800009e0:	e24cb004 	sub	fp, ip, #4	; 0x4
	while(1);
800009e4:	eafffffe 	b	800009e4 <Prefetch_Handler+0xc>

800009e8 <Abort_Handler>:
}

/*******************************************************************************
* Function Name  : Abort_Handler
* Description    : This function handles data abort exception.
* Input          : None
* Output         : None
* Return         : None
*******************************************************************************/
void Abort_Handler(void)
{
800009e8:	e1a0c00d 	mov	ip, sp
800009ec:	e92dd800 	stmdb	sp!, {fp, ip, lr, pc}
800009f0:	e24cb004 	sub	fp, ip, #4	; 0x4
	while(1);
800009f4:	eafffffe 	b	800009f4 <Abort_Handler+0xc>

800009f8 <PRCCUCMU_IRQHandler>:
}

/*******************************************************************************
* Function Name  : PRCCUCMU_IRQHandler
* Description    : This function handlesthe PRCCU and the CMU interrupt request.
* Input          : None
* Output         : None
* Return         : None
*******************************************************************************/
void PRCCUCMU_IRQHandler(void)
{
800009f8:	e1a0c00d 	mov	ip, sp
800009fc:	e92dd800 	stmdb	sp!, {fp, ip, lr, pc}
80000a00:	e24cb004 	sub	fp, ip, #4	; 0x4
	while(1);
80000a04:	eafffffe 	b	80000a04 <PRCCUCMU_IRQHandler+0xc>

80000a08 <EXTIT01_IRQHandler>:
}

/*******************************************************************************
* Function Name  : EXTIT01_IRQHandler
* Description    : This function handles External line1 interrupt request.
* Input          : None
* Output         : None
* Return         : None
*******************************************************************************/
void EXTIT01_IRQHandler (void)
{
80000a08:	e1a0c00d 	mov	ip, sp
80000a0c:	e92dd800 	stmdb	sp!, {fp, ip, lr, pc}
80000a10:	e24cb004 	sub	fp, ip, #4	; 0x4
	while(1);
80000a14:	eafffffe 	b	80000a14 <EXTIT01_IRQHandler+0xc>

80000a18 <EXTIT02_IRQHandler>:
}

/*******************************************************************************
* Function Name  : EXTIT02_IRQHandler
* Description    : This function handles External line2 interrupt request.
* Input          : None
* Output         : None
* Return         : None
*******************************************************************************/
void EXTIT02_IRQHandler (void)
{
80000a18:	e1a0c00d 	mov	ip, sp
80000a1c:	e92dd800 	stmdb	sp!, {fp, ip, lr, pc}
80000a20:	e24cb004 	sub	fp, ip, #4	; 0x4
	while(1);
80000a24:	eafffffe 	b	80000a24 <EXTIT02_IRQHandler+0xc>

80000a28 <EXTIT03_IRQHandler>:
}

/*******************************************************************************
* Function Name  : EXTIT03_IRQHandler
* Description    : This function handles External line3 interrupt request.
* Input          : None
* Output         : None
* Return         : None
*******************************************************************************/
void EXTIT03_IRQHandler (void)
{
80000a28:	e1a0c00d 	mov	ip, sp
80000a2c:	e92dd800 	stmdb	sp!, {fp, ip, lr, pc}
80000a30:	e24cb004 	sub	fp, ip, #4	; 0x4
	while(1);
80000a34:	eafffffe 	b	80000a34 <EXTIT03_IRQHandler+0xc>

80000a38 <EXTIT04_IRQHandler>:
}

/*******************************************************************************
* Function Name  : EXTIT04_IRQHandler
* Description    : This function handles External line 4 interrupt request.
* Input          : None
* Output         : None
* Return         : None
*******************************************************************************/
void EXTIT04_IRQHandler (void)
{
80000a38:	e1a0c00d 	mov	ip, sp
80000a3c:	e92dd800 	stmdb	sp!, {fp, ip, lr, pc}
80000a40:	e24cb004 	sub	fp, ip, #4	; 0x4
	while(1);
80000a44:	eafffffe 	b	80000a44 <EXTIT04_IRQHandler+0xc>

80000a48 <EXTIT05_IRQHandler>:
}

/*******************************************************************************
* Function Name  : EXTIT05_IRQHandler
* Description    : This function handles External line 5 interrupt request.
* Input          : None
* Output         : None
* Return         : None
*******************************************************************************/
void EXTIT05_IRQHandler (void)
{
80000a48:	e1a0c00d 	mov	ip, sp
80000a4c:	e92dd800 	stmdb	sp!, {fp, ip, lr, pc}
80000a50:	e24cb004 	sub	fp, ip, #4	; 0x4
	while(1);
80000a54:	eafffffe 	b	80000a54 <EXTIT05_IRQHandler+0xc>

80000a58 <EXTIT06_IRQHandler>:
}

/*******************************************************************************
* Function Name  : EXTIT06_IRQHandler
* Description    : This function handles External line 6 interrupt request.
* Input          : None
* Output         : None
* Return         : None
*******************************************************************************/
void EXTIT06_IRQHandler (void)
{
80000a58:	e1a0c00d 	mov	ip, sp
80000a5c:	e92dd800 	stmdb	sp!, {fp, ip, lr, pc}
80000a60:	e24cb004 	sub	fp, ip, #4	; 0x4
	while(1);
80000a64:	eafffffe 	b	80000a64 <EXTIT06_IRQHandler+0xc>

80000a68 <EXTIT07_IRQHandler>:
}

/*******************************************************************************
* Function Name  : EXTIT07_IRQHandler
* Description    : This function handles External line7 interrupt request.
* Input          : None
* Output         : None
* Return         : None
*******************************************************************************/
void EXTIT07_IRQHandler (void)
{
80000a68:	e1a0c00d 	mov	ip, sp
80000a6c:	e92dd800 	stmdb	sp!, {fp, ip, lr, pc}
80000a70:	e24cb004 	sub	fp, ip, #4	; 0x4
	while(1);
80000a74:	eafffffe 	b	80000a74 <EXTIT07_IRQHandler+0xc>

80000a78 <EXTIT08_IRQHandler>:
}

/*******************************************************************************
* Function Name  : EXTIT08_IRQHandler
* Description    : This function handles External line8 interrupt request.
* Input          : None
* Output         : None
* Return         : None
*******************************************************************************/
void EXTIT08_IRQHandler (void)
{
80000a78:	e1a0c00d 	mov	ip, sp
80000a7c:	e92dd800 	stmdb	sp!, {fp, ip, lr, pc}
80000a80:	e24cb004 	sub	fp, ip, #4	; 0x4
	while(1);
80000a84:	eafffffe 	b	80000a84 <EXTIT08_IRQHandler+0xc>

80000a88 <EXTIT09_IRQHandler>:
}

/*******************************************************************************
* Function Name  : EXTIT09_IRQHandler
* Description    : This function handles External line9 interrupt request.
* Input          : None
* Output         : None
* Return         : None
*******************************************************************************/
void EXTIT09_IRQHandler (void)
{
80000a88:	e1a0c00d 	mov	ip, sp
80000a8c:	e92dd800 	stmdb	sp!, {fp, ip, lr, pc}
80000a90:	e24cb004 	sub	fp, ip, #4	; 0x4
	while(1);
80000a94:	eafffffe 	b	80000a94 <EXTIT09_IRQHandler+0xc>

80000a98 <EXTIT10_IRQHandler>:
}

/*******************************************************************************
* Function Name  : EXTIT10_IRQHandler
* Description    : This function handles External line10 interrupt request.
* Input          : None
* Output         : None
* Return         : None
*******************************************************************************/
void EXTIT10_IRQHandler (void)
{
80000a98:	e1a0c00d 	mov	ip, sp
80000a9c:	e92dd800 	stmdb	sp!, {fp, ip, lr, pc}
80000aa0:	e24cb004 	sub	fp, ip, #4	; 0x4
	while(1);
80000aa4:	eafffffe 	b	80000aa4 <EXTIT10_IRQHandler+0xc>

80000aa8 <EXTIT11_IRQHandler>:
}

/*******************************************************************************
* Function Name  : EXTIT11_IRQHandler
* Description    : This function handles External line11 interrupt request.
* Input          : None
* Output         : None
* Return         : None
*******************************************************************************/
void EXTIT11_IRQHandler (void)
{
80000aa8:	e1a0c00d 	mov	ip, sp
80000aac:	e92dd800 	stmdb	sp!, {fp, ip, lr, pc}
80000ab0:	e24cb004 	sub	fp, ip, #4	; 0x4
	while(1);
80000ab4:	eafffffe 	b	80000ab4 <EXTIT11_IRQHandler+0xc>

80000ab8 <EXTIT12_IRQHandler>:
}

/*******************************************************************************
* Function Name  : EXTIT12_IRQHandler
* Description    : This function handles External line12 interrupt request.
* Input          : None
* Output         : None
* Return         : None
*******************************************************************************/
void EXTIT12_IRQHandler (void)
{
80000ab8:	e1a0c00d 	mov	ip, sp
80000abc:	e92dd800 	stmdb	sp!, {fp, ip, lr, pc}
80000ac0:	e24cb004 	sub	fp, ip, #4	; 0x4
	while(1);
80000ac4:	eafffffe 	b	80000ac4 <EXTIT12_IRQHandler+0xc>

80000ac8 <EXTIT13_IRQHandler>:
}

/*******************************************************************************
* Function Name  : EXTIT13_IRQHandler
* Description    : This function handles External line13 interrupt request.
* Input          : None
* Output         : None
* Return         : None
*******************************************************************************/
void EXTIT13_IRQHandler (void)
{
80000ac8:	e1a0c00d 	mov	ip, sp
80000acc:	e92dd800 	stmdb	sp!, {fp, ip, lr, pc}
80000ad0:	e24cb004 	sub	fp, ip, #4	; 0x4
	while(1);
80000ad4:	eafffffe 	b	80000ad4 <EXTIT13_IRQHandler+0xc>

80000ad8 <EXTIT14_IRQHandler>:
}

/*******************************************************************************
* Function Name  : EXTIT14_IRQHandler
* Description    : This function handles External line14 interrupt request.
* Input          : None
* Output         : None
* Return         : None
*******************************************************************************/
void EXTIT14_IRQHandler (void)
{
80000ad8:	e1a0c00d 	mov	ip, sp
80000adc:	e92dd800 	stmdb	sp!, {fp, ip, lr, pc}
80000ae0:	e24cb004 	sub	fp, ip, #4	; 0x4
	while(1);
80000ae4:	eafffffe 	b	80000ae4 <EXTIT14_IRQHandler+0xc>

80000ae8 <EXTIT15_IRQHandler>:
}

/*******************************************************************************
* Function Name  : EXTIT15_IRQHandler
* Description    : This function handles External line15 interrupt request.
* Input          : None
* Output         : None
* Return         : None
*******************************************************************************/
void EXTIT15_IRQHandler (void)
{
80000ae8:	e1a0c00d 	mov	ip, sp
80000aec:	e92dd800 	stmdb	sp!, {fp, ip, lr, pc}
80000af0:	e24cb004 	sub	fp, ip, #4	; 0x4
	while(1);
80000af4:	eafffffe 	b	80000af4 <EXTIT15_IRQHandler+0xc>

80000af8 <DMATRERR_IRQHandler>:
}

/*******************************************************************************
* Function Name  : DMATRERR_IRQHandler
* Description    : This function handles the DMA transfer error interrupt request.
* Input          : None
* Output         : None
* Return         : None
*******************************************************************************/
void DMATRERR_IRQHandler (void)
{
80000af8:	e1a0c00d 	mov	ip, sp
80000afc:	e92dd800 	stmdb	sp!, {fp, ip, lr, pc}
80000b00:	e24cb004 	sub	fp, ip, #4	; 0x4
	while(1);
80000b04:	eafffffe 	b	80000b04 <DMATRERR_IRQHandler+0xc>

80000b08 <TIM1_IRQHandler>:
}

/*******************************************************************************
* Function Name  : TIM1_IRQHandler
* Description    : This function handles the TIM1 interrupt request.
* Input          : None
* Output         : None
* Return         : None
*******************************************************************************/
void TIM1_IRQHandler (void)
{
80000b08:	e1a0c00d 	mov	ip, sp
80000b0c:	e92dd800 	stmdb	sp!, {fp, ip, lr, pc}
80000b10:	e24cb004 	sub	fp, ip, #4	; 0x4
	while(1);
80000b14:	eafffffe 	b	80000b14 <TIM1_IRQHandler+0xc>

80000b18 <TIM2_IRQHandler>:
}

/*******************************************************************************
* Function Name  : TIM2_IRQHandler
* Description    : This function handles the TIM2 interrupt request.
* Input          : None
* Output         : None
* Return         : None
*******************************************************************************/
void TIM2_IRQHandler (void)
{
80000b18:	e1a0c00d 	mov	ip, sp
80000b1c:	e92dd800 	stmdb	sp!, {fp, ip, lr, pc}
80000b20:	e24cb004 	sub	fp, ip, #4	; 0x4
	while(1);
80000b24:	eafffffe 	b	80000b24 <TIM2_IRQHandler+0xc>

80000b28 <TIM3_IRQHandler>:
}

/*******************************************************************************
* Function Name  : TIM3_IRQHandler
* Description    : This function handles the TIM3 interrupt request.
* Input          : None
* Output         : None
* Return         : None
*******************************************************************************/
void TIM3_IRQHandler (void)
{
80000b28:	e1a0c00d 	mov	ip, sp
80000b2c:	e92dd800 	stmdb	sp!, {fp, ip, lr, pc}
80000b30:	e24cb004 	sub	fp, ip, #4	; 0x4
	while(1);
80000b34:	eafffffe 	b	80000b34 <TIM3_IRQHandler+0xc>

80000b38 <TIM4_IRQHandler>:
}

/*******************************************************************************
* Function Name  : TIM4_IRQHandler
* Description    : This function handles the TIM4 interrupt request.
* Input          : None
* Output         : None
* Return         : None
*******************************************************************************/
void TIM4_IRQHandler (void)
{
80000b38:	e1a0c00d 	mov	ip, sp
80000b3c:	e92dd800 	stmdb	sp!, {fp, ip, lr, pc}
80000b40:	e24cb004 	sub	fp, ip, #4	; 0x4
	while(1);
80000b44:	eafffffe 	b	80000b44 <TIM4_IRQHandler+0xc>

80000b48 <TB0_IRQHandler>:
}

/*******************************************************************************
* Function Name  : TB0_IRQHandler
* Description    : This function handles the TB0 interrupt request.
* Input          : None
* Output         : None
* Return         : None
*******************************************************************************/
void TB0_IRQHandler (void)
{
80000b48:	e1a0c00d 	mov	ip, sp
80000b4c:	e92dd800 	stmdb	sp!, {fp, ip, lr, pc}
80000b50:	e24cb004 	sub	fp, ip, #4	; 0x4
	while(1);
80000b54:	eafffffe 	b	80000b54 <TB0_IRQHandler+0xc>

80000b58 <TB1_IRQHandler>:
}

/*******************************************************************************
* Function Name  : TB1_IRQHandler
* Description    : This function handles the TB1 interrupt request.
* Input          : None
* Output         : None
* Return         : None
*******************************************************************************/
void TB1_IRQHandler (void)
{
80000b58:	e1a0c00d 	mov	ip, sp
80000b5c:	e92dd800 	stmdb	sp!, {fp, ip, lr, pc}
80000b60:	e24cb004 	sub	fp, ip, #4	; 0x4
	while(1);
80000b64:	eafffffe 	b	80000b64 <TB1_IRQHandler+0xc>

80000b68 <TB2_IRQHandler>:
}

/*******************************************************************************
* Function Name  : TB2_IRQHandler
* Description    : This function handles the TB2 interrupt request.
* Input          : None
* Output         : None
* Return         : None
*******************************************************************************/
void TB2_IRQHandler (void)
{
80000b68:	e1a0c00d 	mov	ip, sp
80000b6c:	e92dd800 	stmdb	sp!, {fp, ip, lr, pc}
80000b70:	e24cb004 	sub	fp, ip, #4	; 0x4
	while(1);
80000b74:	eafffffe 	b	80000b74 <TB2_IRQHandler+0xc>

80000b78 <TIM5_IRQHandler>:
}

/*******************************************************************************
* Function Name  : TIM5_IRQHandler
* Description    : This function handles the TIM5 interrupt request.
* Input          : None
* Output         : None
* Return         : None
*******************************************************************************/
void TIM5_IRQHandler (void)
{
80000b78:	e1a0c00d 	mov	ip, sp
80000b7c:	e92dd800 	stmdb	sp!, {fp, ip, lr, pc}
80000b80:	e24cb004 	sub	fp, ip, #4	; 0x4
	while(1);
80000b84:	eafffffe 	b	80000b84 <TIM5_IRQHandler+0xc>

80000b88 <TIM6_IRQHandler>:
}

/*******************************************************************************
* Function Name  : TIM6_IRQHandler
* Description    : This function handles the TIM6 interrupt request.
* Input          : None
* Output         : None
* Return         : None
*******************************************************************************/
void TIM6_IRQHandler (void)
{
80000b88:	e1a0c00d 	mov	ip, sp
80000b8c:	e92dd800 	stmdb	sp!, {fp, ip, lr, pc}
80000b90:	e24cb004 	sub	fp, ip, #4	; 0x4
	while(1);
80000b94:	eafffffe 	b	80000b94 <TIM6_IRQHandler+0xc>

80000b98 <TIM7_IRQHandler>:
}

/*******************************************************************************
* Function Name  : TIM7_IRQHandler
* Description    : This function handles the TIM7 interrupt request.
* Input          : None
* Output         : None
* Return         : None
*******************************************************************************/
void TIM7_IRQHandler (void)
{
80000b98:	e1a0c00d 	mov	ip, sp
80000b9c:	e92dd800 	stmdb	sp!, {fp, ip, lr, pc}
80000ba0:	e24cb004 	sub	fp, ip, #4	; 0x4
	while(1);
80000ba4:	eafffffe 	b	80000ba4 <TIM7_IRQHandler+0xc>

80000ba8 <TIM8_IRQHandler>:
}

/*******************************************************************************
* Function Name  : TIM8_IRQHandler
* Description    : This function handles the TIM8 interrupt request.
* Input          : None
* Output         : None
* Return         : None
*******************************************************************************/
void TIM8_IRQHandler (void)
{
80000ba8:	e1a0c00d 	mov	ip, sp
80000bac:	e92dd800 	stmdb	sp!, {fp, ip, lr, pc}
80000bb0:	e24cb004 	sub	fp, ip, #4	; 0x4
	while(1);
80000bb4:	eafffffe 	b	80000bb4 <TIM8_IRQHandler+0xc>

80000bb8 <TIM9_IRQHandler>:
}

/*******************************************************************************
* Function Name  : TIM9_IRQHandler
* Description    : This function handles the TIM9 interrupt request.
* Input          : None
* Output         : None
* Return         : None
*******************************************************************************/
void TIM9_IRQHandler (void)
{
80000bb8:	e1a0c00d 	mov	ip, sp
80000bbc:	e92dd800 	stmdb	sp!, {fp, ip, lr, pc}
80000bc0:	e24cb004 	sub	fp, ip, #4	; 0x4
	while(1);
80000bc4:	eafffffe 	b	80000bc4 <TIM9_IRQHandler+0xc>

80000bc8 <UART2_IRQHandler>:
}

/*******************************************************************************
* Function Name  : UART2_IRQHandler
* Description    : This function handles the UART2 interrupt request.
* Input          : None
* Output         : None
* Return         : None
*******************************************************************************/
void UART2_IRQHandler (void)
{
80000bc8:	e1a0c00d 	mov	ip, sp
80000bcc:	e92dd800 	stmdb	sp!, {fp, ip, lr, pc}
80000bd0:	e24cb004 	sub	fp, ip, #4	; 0x4
	while(1);
80000bd4:	eafffffe 	b	80000bd4 <UART2_IRQHandler+0xc>

80000bd8 <UART3_IRQHandler>:
}

/*******************************************************************************
* Function Name  : UART3_IRQHandler
* Description    : This function handles the UART3 interrupt request.
* Input          : None
* Output         : None
* Return         : None
*******************************************************************************/
void UART3_IRQHandler (void)
{
80000bd8:	e1a0c00d 	mov	ip, sp
80000bdc:	e92dd800 	stmdb	sp!, {fp, ip, lr, pc}
80000be0:	e24cb004 	sub	fp, ip, #4	; 0x4
	while(1);
80000be4:	eafffffe 	b	80000be4 <UART3_IRQHandler+0xc>

80000be8 <FLASHEOP_IRQHandler>:
}

/*******************************************************************************
* Function Name  : FlashEOP_IRQHandler
* Description    : This function handles the FLASH end of program interrupt request.
* Input          : None
* Output         : None
* Return         : None
*******************************************************************************/
void FLASHEOP_IRQHandler (void)
{
80000be8:	e1a0c00d 	mov	ip, sp
80000bec:	e92dd800 	stmdb	sp!, {fp, ip, lr, pc}
80000bf0:	e24cb004 	sub	fp, ip, #4	; 0x4
	while(1);
80000bf4:	eafffffe 	b	80000bf4 <FLASHEOP_IRQHandler+0xc>

80000bf8 <PWM0_IRQHandler>:
}

/*******************************************************************************
* Function Name  : PWM0_IRQHandler
* Description    : This function handles the PWM0 interrupt request.
* Input          : None
* Output         : None
* Return         : None
*******************************************************************************/
void PWM0_IRQHandler (void)
{
80000bf8:	e1a0c00d 	mov	ip, sp
80000bfc:	e92dd800 	stmdb	sp!, {fp, ip, lr, pc}
80000c00:	e24cb004 	sub	fp, ip, #4	; 0x4
	while(1);
80000c04:	eafffffe 	b	80000c04 <PWM0_IRQHandler+0xc>

80000c08 <PWM1_IRQHandler>:
}

/*******************************************************************************
* Function Name  : PWM1_IRQHandler
* Description    : This function handles the PWM1 interrupt request.
* Input          : None
* Output         : None
* Return         : None
*******************************************************************************/
void PWM1_IRQHandler (void)
{
80000c08:	e1a0c00d 	mov	ip, sp
80000c0c:	e92dd800 	stmdb	sp!, {fp, ip, lr, pc}
80000c10:	e24cb004 	sub	fp, ip, #4	; 0x4
	while(1);
80000c14:	eafffffe 	b	80000c14 <PWM1_IRQHandler+0xc>

80000c18 <PWM2_IRQHandler>:
}

/*******************************************************************************
* Function Name  : PWM2_IRQHandler
* Description    : This function handles the PWM2 interrupt request.
* Input          : None
* Output         : None
* Return         : None
*******************************************************************************/
void PWM2_IRQHandler (void)
{
80000c18:	e1a0c00d 	mov	ip, sp
80000c1c:	e92dd800 	stmdb	sp!, {fp, ip, lr, pc}
80000c20:	e24cb004 	sub	fp, ip, #4	; 0x4
	while(1);
80000c24:	eafffffe 	b	80000c24 <PWM2_IRQHandler+0xc>

80000c28 <PWM3_IRQHandler>:
}

/*******************************************************************************
* Function Name  : PWM3_IRQHandler
* Description    : This function handles the PWM3 interrupt request.
* Input          : None
* Output         : None
* Return         : None
*******************************************************************************/
void PWM3_IRQHandler (void)
{
80000c28:	e1a0c00d 	mov	ip, sp
80000c2c:	e92dd800 	stmdb	sp!, {fp, ip, lr, pc}
80000c30:	e24cb004 	sub	fp, ip, #4	; 0x4
	while(1);
80000c34:	eafffffe 	b	80000c34 <PWM3_IRQHandler+0xc>

80000c38 <PWM4_IRQHandler>:
}

/*******************************************************************************
* Function Name  : PWM4_IRQHandler
* Description    : This function handles the PWM4 interrupt request.
* Input          : None
* Output         : None
* Return         : None
*******************************************************************************/
void PWM4_IRQHandler (void)
{
80000c38:	e1a0c00d 	mov	ip, sp
80000c3c:	e92dd800 	stmdb	sp!, {fp, ip, lr, pc}
80000c40:	e24cb004 	sub	fp, ip, #4	; 0x4
	while(1);
80000c44:	eafffffe 	b	80000c44 <PWM4_IRQHandler+0xc>

80000c48 <PWM5_IRQHandler>:
}

/*******************************************************************************
* Function Name  : PWM5_IRQHandler
* Description    : This function handles the PWM5 interrupt request.
* Input          : None
* Output         : None
* Return         : None
*******************************************************************************/
void PWM5_IRQHandler (void)
{
80000c48:	e1a0c00d 	mov	ip, sp
80000c4c:	e92dd800 	stmdb	sp!, {fp, ip, lr, pc}
80000c50:	e24cb004 	sub	fp, ip, #4	; 0x4
	while(1);
80000c54:	eafffffe 	b	80000c54 <PWM5_IRQHandler+0xc>

80000c58 <WIU_IRQHandler>:
}

/*******************************************************************************
* Function Name  : WIU_IRQHandler
* Description    : This function handles the wake-up system interrupt request.
* Input          : None
* Output         : None
* Return         : None
*******************************************************************************/
void WIU_IRQHandler (void)
{
80000c58:	e1a0c00d 	mov	ip, sp
80000c5c:	e92dd800 	stmdb	sp!, {fp, ip, lr, pc}
80000c60:	e24cb004 	sub	fp, ip, #4	; 0x4
	while(1);
80000c64:	eafffffe 	b	80000c64 <WIU_IRQHandler+0xc>

80000c68 <WDGWUT_IRQHandler>:
}

/*******************************************************************************
* Function Name  : WDGWUT_IRQHandler
* Description    : This function handles the watchdog and the wakeup timer interrupt request.
* Input          : None
* Output         : None
* Return         : None
*******************************************************************************/
void WDGWUT_IRQHandler (void)
{
80000c68:	e1a0c00d 	mov	ip, sp
80000c6c:	e92dd800 	stmdb	sp!, {fp, ip, lr, pc}
80000c70:	e24cb004 	sub	fp, ip, #4	; 0x4
	while(1);
80000c74:	eafffffe 	b	80000c74 <WDGWUT_IRQHandler+0xc>

80000c78 <BSPI0_IRQHandler>:
}

/*******************************************************************************
* Function Name  : BSPI0_IRQHandler
* Description    : This function handles the BSPI0 interrupt request.
* Input          : None
* Output         : None
* Return         : None
*******************************************************************************/
void BSPI0_IRQHandler (void)
{
80000c78:	e1a0c00d 	mov	ip, sp
80000c7c:	e92dd800 	stmdb	sp!, {fp, ip, lr, pc}
80000c80:	e24cb004 	sub	fp, ip, #4	; 0x4
	while(1);
80000c84:	eafffffe 	b	80000c84 <BSPI0_IRQHandler+0xc>

80000c88 <BSPI1_IRQHandler>:
}

/*******************************************************************************
* Function Name  :  BSPI1_IRQHandler
* Description    : This function handles the BSPI1 interrupt request.
* Input          : None
* Output         : None
* Return         : None
*******************************************************************************/
void BSPI1_IRQHandler (void)
{
80000c88:	e1a0c00d 	mov	ip, sp
80000c8c:	e92dd800 	stmdb	sp!, {fp, ip, lr, pc}
80000c90:	e24cb004 	sub	fp, ip, #4	; 0x4
	while(1);
80000c94:	eafffffe 	b	80000c94 <BSPI1_IRQHandler+0xc>

80000c98 <BSPI2_IRQHandler>:
}

/*******************************************************************************
* Function Name  : BSPI2_IRQHandler
* Description    : This function handles the BSPI2 interrupt request.
* Input          : None
* Output         : None
* Return         : None
*******************************************************************************/
void BSPI2_IRQHandler (void)
{
80000c98:	e1a0c00d 	mov	ip, sp
80000c9c:	e92dd800 	stmdb	sp!, {fp, ip, lr, pc}
80000ca0:	e24cb004 	sub	fp, ip, #4	; 0x4
	while(1);
80000ca4:	eafffffe 	b	80000ca4 <BSPI2_IRQHandler+0xc>

80000ca8 <UART0_IRQHandler>:
}

/*******************************************************************************
* Function Name  : UART0_IRQHandler
* Description    : This function handles the UART0 interrupt request.
* Input          : None
* Output         : None
* Return         : None
*******************************************************************************/
void UART0_IRQHandler (void)
{
80000ca8:	e1a0c00d 	mov	ip, sp
80000cac:	e92dd800 	stmdb	sp!, {fp, ip, lr, pc}
80000cb0:	e24cb004 	sub	fp, ip, #4	; 0x4
	while(1);
80000cb4:	eafffffe 	b	80000cb4 <UART0_IRQHandler+0xc>

80000cb8 <UART1_IRQHandler>:
}

/*******************************************************************************
* Function Name  : UART1_IRQHandler
* Description    : This function handles the UART1 interrupt request.
* Input          : None
* Output         : None
* Return         : None
*******************************************************************************/
void UART1_IRQHandler (void)
{
80000cb8:	e1a0c00d 	mov	ip, sp
80000cbc:	e92dd800 	stmdb	sp!, {fp, ip, lr, pc}
80000cc0:	e24cb004 	sub	fp, ip, #4	; 0x4
	while(1);
80000cc4:	eafffffe 	b	80000cc4 <UART1_IRQHandler+0xc>

80000cc8 <I2C0ITERR_IRQHandler>:
}

/*******************************************************************************
* Function Name  : I2C0ITERR_IRQHandler
* Description    : This function handles the I2C0 and DMA Error Interrupt requests
* Input          : None
* Output         : None
* Return         : None
*******************************************************************************/
void I2C0ITERR_IRQHandler (void)
{
80000cc8:	e1a0c00d 	mov	ip, sp
80000ccc:	e92dd800 	stmdb	sp!, {fp, ip, lr, pc}
80000cd0:	e24cb004 	sub	fp, ip, #4	; 0x4
	while(1);
80000cd4:	eafffffe 	b	80000cd4 <I2C0ITERR_IRQHandler+0xc>

80000cd8 <I2C1ITERR_IRQHandler>:
}

/*******************************************************************************
* Function Name  : I2C1ITERR_IRQHandler
* Description    : This function handles the I2C1 and DMA Error Interrupt requests.
* Input          : None
* Output         : None
* Return         : None
*******************************************************************************/
void I2C1ITERR_IRQHandler (void)
{
80000cd8:	e1a0c00d 	mov	ip, sp
80000cdc:	e92dd800 	stmdb	sp!, {fp, ip, lr, pc}
80000ce0:	e24cb004 	sub	fp, ip, #4	; 0x4
	while(1);
80000ce4:	eafffffe 	b	80000ce4 <I2C1ITERR_IRQHandler+0xc>

80000ce8 <I2C0ITDDC_IRQHandler>:
}

/*******************************************************************************
* Function Name  : I2C0ITDDC_IRQHandler
* Description    : This function handles the I2C0 and the General Interrupt requests.
* Input          : None
* Output         : None
* Return         : None
*******************************************************************************/
void I2C0ITDDC_IRQHandler (void)
{
80000ce8:	e1a0c00d 	mov	ip, sp
80000cec:	e92dd800 	stmdb	sp!, {fp, ip, lr, pc}
80000cf0:	e24cb004 	sub	fp, ip, #4	; 0x4
	while(1);
80000cf4:	eafffffe 	b	80000cf4 <I2C0ITDDC_IRQHandler+0xc>

80000cf8 <I2C1ITDDC_IRQHandler>:
}

/*******************************************************************************
* Function Name  : I2C1ITDDC_IRQHandler
* Description    : This function handles the I2C1 and the General Interrupt requests
* Input          : None
* Output         : None
* Return         : None
*******************************************************************************/
void I2C1ITDDC_IRQHandler (void)
{
80000cf8:	e1a0c00d 	mov	ip, sp
80000cfc:	e92dd800 	stmdb	sp!, {fp, ip, lr, pc}
80000d00:	e24cb004 	sub	fp, ip, #4	; 0x4
	while(1);
80000d04:	eafffffe 	b	80000d04 <I2C1ITDDC_IRQHandler+0xc>

80000d08 <CAN0_IRQHandler>:
}

/*******************************************************************************
* Function Name  : CAN0_IRQHandler
* Description    : This function handles the CAN0 interrupt request.
* Input          : None
* Output         : None
* Return         : None
*******************************************************************************/
void CAN0_IRQHandler (void)
{
80000d08:	e1a0c00d 	mov	ip, sp
80000d0c:	e92dd800 	stmdb	sp!, {fp, ip, lr, pc}
80000d10:	e24cb004 	sub	fp, ip, #4	; 0x4
	while(1);
80000d14:	eafffffe 	b	80000d14 <CAN0_IRQHandler+0xc>

80000d18 <CAN1_IRQHandler>:
}

/*******************************************************************************
* Function Name  : CAN1_IRQHandler
* Description    : This function handles the CAN1 interrupt request.
* Input          : None
* Output         : None
* Return         : None
*******************************************************************************/
void CAN1_IRQHandler (void)
{
80000d18:	e1a0c00d 	mov	ip, sp
80000d1c:	e92dd800 	stmdb	sp!, {fp, ip, lr, pc}
80000d20:	e24cb004 	sub	fp, ip, #4	; 0x4
	while(1);
80000d24:	eafffffe 	b	80000d24 <CAN1_IRQHandler+0xc>

80000d28 <CAN2_IRQHandler>:
}

/*******************************************************************************
* Function Name  : CAN2_IRQHandler
* Description    : This function handles the CAN2 interrupt request.
* Input          : None
* Output         : None
* Return         : None
*******************************************************************************/
void CAN2_IRQHandler (void)
{
80000d28:	e1a0c00d 	mov	ip, sp
80000d2c:	e92dd800 	stmdb	sp!, {fp, ip, lr, pc}
80000d30:	e24cb004 	sub	fp, ip, #4	; 0x4
	while(1);
80000d34:	eafffffe 	b	80000d34 <CAN2_IRQHandler+0xc>

80000d38 <DMA0_IRQHandler>:
}

/*******************************************************************************
* Function Name  : DMA0_IRQHandler
* Description    : This function handles the DMA0 interrupt request.
* Input          : None
* Output         : None
* Return         : None
*******************************************************************************/
void DMA0_IRQHandler (void)
{
80000d38:	e1a0c00d 	mov	ip, sp
80000d3c:	e92dd800 	stmdb	sp!, {fp, ip, lr, pc}
80000d40:	e24cb004 	sub	fp, ip, #4	; 0x4
	while(1);
80000d44:	eafffffe 	b	80000d44 <DMA0_IRQHandler+0xc>

80000d48 <DMA1_IRQHandler>:
}

/*******************************************************************************
* Function Name  : DMA1_IRQHandler
* Description    : This function handles the DMA1 interrupt request.
* Input          : None
* Output         : None
* Return         : None
*******************************************************************************/
void DMA1_IRQHandler (void)
{
80000d48:	e1a0c00d 	mov	ip, sp
80000d4c:	e92dd800 	stmdb	sp!, {fp, ip, lr, pc}
80000d50:	e24cb004 	sub	fp, ip, #4	; 0x4
	while(1);
80000d54:	eafffffe 	b	80000d54 <DMA1_IRQHandler+0xc>

80000d58 <DMA2_IRQHandler>:
}

/*******************************************************************************
* Function Name  : DMA2_IRQHandler
* Description    : This function handles the DMA2 interrupt request.
* Input          : None
* Output         : None
* Return         : None
*******************************************************************************/
void DMA2_IRQHandler (void)
{
80000d58:	e1a0c00d 	mov	ip, sp
80000d5c:	e92dd800 	stmdb	sp!, {fp, ip, lr, pc}
80000d60:	e24cb004 	sub	fp, ip, #4	; 0x4
	while(1);
80000d64:	eafffffe 	b	80000d64 <DMA2_IRQHandler+0xc>

80000d68 <DMA3_IRQHandler>:
}

/*******************************************************************************
* Function Name  : DMA3_IRQHandler
* Description    : This function handles the DMA3 interrupt request.
* Input          : None
* Output         : None
* Return         : None
*******************************************************************************/
void DMA3_IRQHandler (void)
{
80000d68:	e1a0c00d 	mov	ip, sp
80000d6c:	e92dd800 	stmdb	sp!, {fp, ip, lr, pc}
80000d70:	e24cb004 	sub	fp, ip, #4	; 0x4
	while(1);
80000d74:	eafffffe 	b	80000d74 <DMA3_IRQHandler+0xc>

80000d78 <ADC_IRQHandler>:
}

/*******************************************************************************
* Function Name  : ADC_IRQHandler
* Description    : This function handles the ADC interrupt request.
* Input          : None
* Output         : None
* Return         : None
*******************************************************************************/
void ADC_IRQHandler (void)
{
80000d78:	e1a0c00d 	mov	ip, sp
80000d7c:	e92dd800 	stmdb	sp!, {fp, ip, lr, pc}
80000d80:	e24cb004 	sub	fp, ip, #4	; 0x4
  Conversion_Value = ADC_GetConversionValue(ADC_CHANNEL0);
80000d84:	e3a00000 	mov	r0, #0	; 0x0
80000d88:	eb0004fa 	bl	80002178 <ADC_GetConversionValue>
80000d8c:	e1a03000 	mov	r3, r0
80000d90:	e1a02003 	mov	r2, r3
80000d94:	e59f3020 	ldr	r3, [pc, #32]	; 80000dbc <.text+0xdbc>
80000d98:	e1c320b0 	strh	r2, [r3]
  /* Clear EOC Interrupt pending bit */
  ADC_FlagClear (ADC_FLAG_EOC );
80000d9c:	e3a00002 	mov	r0, #2	; 0x2
80000da0:	eb000505 	bl	800021bc <ADC_FlagClear>
  /* Clear the last Analog Watchdog0 comparison result */
  ADC_FlagClear (ADC_FLAG_AnalogWatchdog0_HighThresold | ADC_FLAG_AnalogWatchdog0_LowThresold);
80000da4:	e3a00030 	mov	r0, #48	; 0x30
80000da8:	eb000503 	bl	800021bc <ADC_FlagClear>

  ADC_ConversionCmd (ADC_ConversionStop);
80000dac:	e3a00cff 	mov	r0, #65280	; 0xff00
80000db0:	e28000fe 	add	r0, r0, #254	; 0xfe
80000db4:	eb0004da 	bl	80002124 <ADC_ConversionCmd>
}
80000db8:	e89da800 	ldmia	sp, {fp, sp, pc}
80000dbc:	a000000c 	andge	r0, r0, ip

80000dc0 <RTC_IRQHandler>:

/*******************************************************************************
* Function Name  : RTC_IRQHandler
* Description    : This function handles the RTC interrupt request.
* Input          : None
* Output         : None
* Return         : None
*******************************************************************************/
void RTC_IRQHandler (void)
{
80000dc0:	e1a0c00d 	mov	ip, sp
80000dc4:	e92dd800 	stmdb	sp!, {fp, ip, lr, pc}
80000dc8:	e24cb004 	sub	fp, ip, #4	; 0x4
	while(1);
80000dcc:	eafffffe 	b	80000dcc <RTC_IRQHandler+0xc>

80000dd0 <millier>:
ADC_InitTypeDef  ADC_InitStructure;
CMU_InitTypeDef  CMU_InitStructure;

/* Private function prototypes -------------------------------------------------*/
unsigned int millier(unsigned int val){
80000dd0:	e1a0c00d 	mov	ip, sp
80000dd4:	e92dd800 	stmdb	sp!, {fp, ip, lr, pc}
80000dd8:	e24cb004 	sub	fp, ip, #4	; 0x4
80000ddc:	e24dd004 	sub	sp, sp, #4	; 0x4
80000de0:	e50b0010 	str	r0, [fp, #-16]
 return((val/1000) + 0x30);
80000de4:	e51b2010 	ldr	r2, [fp, #-16]
80000de8:	e59f3010 	ldr	r3, [pc, #16]	; 80000e00 <.text+0xe00>
80000dec:	e0831392 	umull	r1, r3, r2, r3
80000df0:	e1a03323 	mov	r3, r3, lsr #6
80000df4:	e2833030 	add	r3, r3, #48	; 0x30
}
80000df8:	e1a00003 	mov	r0, r3
80000dfc:	e89da808 	ldmia	sp, {r3, fp, sp, pc}
80000e00:	10624dd3 	ldrned	r4, [r2], #-211

80000e04 <centaine>:
unsigned int centaine(unsigned int val){
80000e04:	e1a0c00d 	mov	ip, sp
80000e08:	e92dd800 	stmdb	sp!, {fp, ip, lr, pc}
80000e0c:	e24cb004 	sub	fp, ip, #4	; 0x4
80000e10:	e24dd008 	sub	sp, sp, #8	; 0x8
80000e14:	e50b0014 	str	r0, [fp, #-20]
  unsigned int valCopy;
 valCopy = val % 1000;
80000e18:	e51b1014 	ldr	r1, [fp, #-20]
80000e1c:	e59f3044 	ldr	r3, [pc, #68]	; 80000e68 <.text+0xe68>
80000e20:	e0832391 	umull	r2, r3, r1, r3
80000e24:	e1a02323 	mov	r2, r3, lsr #6
80000e28:	e1a03002 	mov	r3, r2
80000e2c:	e1a03283 	mov	r3, r3, lsl #5
80000e30:	e0623003 	rsb	r3, r2, r3
80000e34:	e1a03103 	mov	r3, r3, lsl #2
80000e38:	e0833002 	add	r3, r3, r2
80000e3c:	e1a03183 	mov	r3, r3, lsl #3
80000e40:	e0633001 	rsb	r3, r3, r1
80000e44:	e50b3010 	str	r3, [fp, #-16]
 return((valCopy/100) + 0x30);
80000e48:	e51b2010 	ldr	r2, [fp, #-16]
80000e4c:	e59f3018 	ldr	r3, [pc, #24]	; 80000e6c <.text+0xe6c>
80000e50:	e0831392 	umull	r1, r3, r2, r3
80000e54:	e1a032a3 	mov	r3, r3, lsr #5
80000e58:	e2833030 	add	r3, r3, #48	; 0x30
}
80000e5c:	e1a00003 	mov	r0, r3
80000e60:	e24bd00c 	sub	sp, fp, #12	; 0xc
80000e64:	e89da800 	ldmia	sp, {fp, sp, pc}
80000e68:	10624dd3 	ldrned	r4, [r2], #-211
80000e6c:	51eb851f 	mvnpl	r8, pc, lsl r5

80000e70 <dixaine>:
unsigned int dixaine(unsigned int val){
80000e70:	e1a0c00d 	mov	ip, sp
80000e74:	e92dd800 	stmdb	sp!, {fp, ip, lr, pc}
80000e78:	e24cb004 	sub	fp, ip, #4	; 0x4
80000e7c:	e24dd008 	sub	sp, sp, #8	; 0x8
80000e80:	e50b0014 	str	r0, [fp, #-20]
 unsigned int valCopy;
 valCopy = val % 100;
80000e84:	e51b1014 	ldr	r1, [fp, #-20]
80000e88:	e59f3044 	ldr	r3, [pc, #68]	; 80000ed4 <.text+0xed4>
80000e8c:	e0832391 	umull	r2, r3, r1, r3
80000e90:	e1a022a3 	mov	r2, r3, lsr #5
80000e94:	e1a03002 	mov	r3, r2
80000e98:	e1a03103 	mov	r3, r3, lsl #2
80000e9c:	e0833002 	add	r3, r3, r2
80000ea0:	e1a02103 	mov	r2, r3, lsl #2
80000ea4:	e0833002 	add	r3, r3, r2
80000ea8:	e1a03103 	mov	r3, r3, lsl #2
80000eac:	e0633001 	rsb	r3, r3, r1
80000eb0:	e50b3010 	str	r3, [fp, #-16]
 return((valCopy/10) + 0x30);
80000eb4:	e51b2010 	ldr	r2, [fp, #-16]
80000eb8:	e59f3018 	ldr	r3, [pc, #24]	; 80000ed8 <.text+0xed8>
80000ebc:	e0831392 	umull	r1, r3, r2, r3
80000ec0:	e1a031a3 	mov	r3, r3, lsr #3
80000ec4:	e2833030 	add	r3, r3, #48	; 0x30
}		
80000ec8:	e1a00003 	mov	r0, r3
80000ecc:	e24bd00c 	sub	sp, fp, #12	; 0xc
80000ed0:	e89da800 	ldmia	sp, {fp, sp, pc}
80000ed4:	51eb851f 	mvnpl	r8, pc, lsl r5
80000ed8:	cccccccd 	stcgtl	12, cr12, [ip], {205}

80000edc <unite>:
unsigned int unite(unsigned int val){
80000edc:	e1a0c00d 	mov	ip, sp
80000ee0:	e92dd800 	stmdb	sp!, {fp, ip, lr, pc}
80000ee4:	e24cb004 	sub	fp, ip, #4	; 0x4
80000ee8:	e24dd00c 	sub	sp, sp, #12	; 0xc
80000eec:	e50b0014 	str	r0, [fp, #-20]
 unsigned int valCopy;
 valCopy = val % 100;
80000ef0:	e51b1014 	ldr	r1, [fp, #-20]
80000ef4:	e59f3068 	ldr	r3, [pc, #104]	; 80000f64 <.text+0xf64>
80000ef8:	e0832391 	umull	r2, r3, r1, r3
80000efc:	e1a022a3 	mov	r2, r3, lsr #5
80000f00:	e1a03002 	mov	r3, r2
80000f04:	e1a03103 	mov	r3, r3, lsl #2
80000f08:	e0833002 	add	r3, r3, r2
80000f0c:	e1a02103 	mov	r2, r3, lsl #2
80000f10:	e0833002 	add	r3, r3, r2
80000f14:	e1a03103 	mov	r3, r3, lsl #2
80000f18:	e0633001 	rsb	r3, r3, r1
80000f1c:	e50b3010 	str	r3, [fp, #-16]
 return((valCopy%10) + 0x30);
80000f20:	e51b2010 	ldr	r2, [fp, #-16]
80000f24:	e59f303c 	ldr	r3, [pc, #60]	; 80000f68 <.text+0xf68>
80000f28:	e0831392 	umull	r1, r3, r2, r3
80000f2c:	e1a031a3 	mov	r3, r3, lsr #3
80000f30:	e50b3018 	str	r3, [fp, #-24]
80000f34:	e51b3018 	ldr	r3, [fp, #-24]
80000f38:	e1a03103 	mov	r3, r3, lsl #2
80000f3c:	e51b1018 	ldr	r1, [fp, #-24]
80000f40:	e0833001 	add	r3, r3, r1
80000f44:	e1a03083 	mov	r3, r3, lsl #1
80000f48:	e0632002 	rsb	r2, r3, r2
80000f4c:	e50b2018 	str	r2, [fp, #-24]
80000f50:	e51b2018 	ldr	r2, [fp, #-24]
80000f54:	e2823030 	add	r3, r2, #48	; 0x30
}
80000f58:	e1a00003 	mov	r0, r3
80000f5c:	e24bd00c 	sub	sp, fp, #12	; 0xc
80000f60:	e89da800 	ldmia	sp, {fp, sp, pc}
80000f64:	51eb851f 	mvnpl	r8, pc, lsl r5
80000f68:	cccccccd 	stcgtl	12, cr12, [ip], {205}

80000f6c <main>:
/* Interface functions ---------------------------------------------------------*/
/* Private functions -----------------------------------------------------------*/


int main(void)
{
80000f6c:	e1a0c00d 	mov	ip, sp
80000f70:	e92dd810 	stmdb	sp!, {r4, fp, ip, lr, pc}
80000f74:	e24cb004 	sub	fp, ip, #4	; 0x4
80000f78:	e24dd00c 	sub	sp, sp, #12	; 0xc
u32 CPIO_Value;
#ifdef LIBDEBUG
    libdebug();
#endif



/*-------------------------------------GPIO0 --------------------------------*/
  /* GPIO0 Clock Enable */
  CFG_PeripheralClockConfig(CFG_CLK_GPIO0, ENABLE);
80000f7c:	e3a00012 	mov	r0, #18	; 0x12
80000f80:	e3a01001 	mov	r1, #1	; 0x1
80000f84:	eb00040b 	bl	80001fb8 <CFG_PeripheralClockConfig>
  /* GPIO0 Configuration */
  GPIO0_InitStructure.GPIO_Mode = GPIO_Mode_OUT_PP;
80000f88:	e59f230c 	ldr	r2, [pc, #780]	; 8000129c <.text+0x129c>
80000f8c:	e3a03005 	mov	r3, #5	; 0x5
80000f90:	e1c230b2 	strh	r3, [r2, #2]
  GPIO0_InitStructure.GPIO_Pins = GPIO_PIN_ALL ;
80000f94:	e59f2300 	ldr	r2, [pc, #768]	; 8000129c <.text+0x129c>
80000f98:	e3e03000 	mvn	r3, #0	; 0x0
80000f9c:	e1c230b0 	strh	r3, [r2]
  GPIO_Init (GPIO0, &GPIO0_InitStructure);
80000fa0:	e3a0032a 	mov	r0, #-1476395008	; 0xa8000000
80000fa4:	e1a008c0 	mov	r0, r0, asr #17
80000fa8:	e59f12ec 	ldr	r1, [pc, #748]	; 8000129c <.text+0x129c>
80000fac:	eb000513 	bl	80002400 <GPIO_Init>

/*-----------------------------------GPIO3 ----------------------------------*/
  /* GPIO3 Clock Enable */
  CFG_PeripheralClockConfig(CFG_CLK_GPIO3, ENABLE);
80000fb0:	e3a00015 	mov	r0, #21	; 0x15
80000fb4:	e3a01001 	mov	r1, #1	; 0x1
80000fb8:	eb0003fe 	bl	80001fb8 <CFG_PeripheralClockConfig>
  /* GPIO3 Configuration */
  GPIO3_InitStructure.GPIO_Mode = GPIO_Mode_HI_AIN_TRI;
80000fbc:	e59f22dc 	ldr	r2, [pc, #732]	; 800012a0 <.text+0x12a0>
80000fc0:	e3a03001 	mov	r3, #1	; 0x1
80000fc4:	e1c230b2 	strh	r3, [r2, #2]
  GPIO3_InitStructure.GPIO_Pins = GPIO_PIN_ALL ;
80000fc8:	e59f22d0 	ldr	r2, [pc, #720]	; 800012a0 <.text+0x12a0>
80000fcc:	e3e03000 	mvn	r3, #0	; 0x0
80000fd0:	e1c230b0 	strh	r3, [r2]
  GPIO_Init (GPIO3, &GPIO3_InitStructure);
80000fd4:	e3e00daf 	mvn	r0, #11200	; 0x2bc0
80000fd8:	e240000f 	sub	r0, r0, #15	; 0xf
80000fdc:	e59f12bc 	ldr	r1, [pc, #700]	; 800012a0 <.text+0x12a0>
80000fe0:	eb000506 	bl	80002400 <GPIO_Init>

/*-----------------------------------EIC-------------------------------------*/
  /* EIC Clock Enable */
  CFG_PeripheralClockConfig(CFG_CLK_EIC, ENABLE);
80000fe4:	e3a0001d 	mov	r0, #29	; 0x1d
80000fe8:	e3a01001 	mov	r1, #1	; 0x1
80000fec:	eb0003f1 	bl	80001fb8 <CFG_PeripheralClockConfig>
  /* EIC Config */
  EIC_IRQChannelPriorityConfig( ADC_IRQChannel, 1);
80000ff0:	e3a0003e 	mov	r0, #62	; 0x3e
80000ff4:	e3a01001 	mov	r1, #1	; 0x1
80000ff8:	eb0004e8 	bl	800023a0 <EIC_IRQChannelPriorityConfig>
  EIC_IRQChannelConfig( ADC_IRQChannel , ENABLE );
80000ffc:	e3a0003e 	mov	r0, #62	; 0x3e
80001000:	e3a01001 	mov	r1, #1	; 0x1
80001004:	eb0004cb 	bl	80002338 <EIC_IRQChannelConfig>
  EIC_IRQCmd(ENABLE);
80001008:	e3a00001 	mov	r0, #1	; 0x1
8000100c:	eb0004ec 	bl	800023c4 <EIC_IRQCmd>

/*---------------------------------CMU---------------------------------------*/
  /* CMU Initialization */
  CMU_DeInit( );
80001010:	eb000476 	bl	800021f0 <CMU_DeInit>
  CMU_StructInit(&CMU_InitStructure);
80001014:	e59f0288 	ldr	r0, [pc, #648]	; 800012a4 <.text+0x12a4>
80001018:	eb000488 	bl	80002240 <CMU_StructInit>
  /* Enable the external oscillator */
  CMU_InitStructure.CMU_CKSEL0 = CMU_CKSEL0_CKOSC;
8000101c:	e59f2280 	ldr	r2, [pc, #640]	; 800012a4 <.text+0x12a4>
80001020:	e3a03001 	mov	r3, #1	; 0x1
80001024:	e1c230b6 	strh	r3, [r2, #6]
  CMU_Init(&CMU_InitStructure);
80001028:	e59f0274 	ldr	r0, [pc, #628]	; 800012a4 <.text+0x12a4>
8000102c:	eb00049a 	bl	8000229c <CMU_Init>
  /* Disable DIV2 */
  PRCCU->CFR &= 0x7FFF;
80001030:	e3a02206 	mov	r2, #1610612736	; 0x60000000
80001034:	e3a03206 	mov	r3, #1610612736	; 0x60000000
80001038:	e5933008 	ldr	r3, [r3, #8]
8000103c:	e1a03883 	mov	r3, r3, lsl #17
80001040:	e1a038a3 	mov	r3, r3, lsr #17
80001044:	e5823008 	str	r3, [r2, #8]

/*---------------------------------ADC---------------------------------------*/
  /* ADC Clock Enable */
  CFG_PeripheralClockConfig(CFG_CLK_ADC, ENABLE);
80001048:	e3a0001c 	mov	r0, #28	; 0x1c
8000104c:	e3a01001 	mov	r1, #1	; 0x1
80001050:	eb0003d8 	bl	80001fb8 <CFG_PeripheralClockConfig>
  /* ADC Configuration */
  ADC_DeInit ();
80001054:	eb00045d 	bl	800021d0 <ADC_DeInit>
  ADC_StructInit(&ADC_InitStructure);
80001058:	e59f0248 	ldr	r0, [pc, #584]	; 800012a8 <.text+0x12a8>
8000105c:	eb000426 	bl	800020fc <ADC_StructInit>
  ADC_InitStructure.ADC_Calibration = ADC_Calibration_ON;
80001060:	e59f2240 	ldr	r2, [pc, #576]	; 800012a8 <.text+0x12a8>
80001064:	e3a03002 	mov	r3, #2	; 0x2
80001068:	e5c23000 	strb	r3, [r2]
  ADC_InitStructure.ADC_CalibAverage = ADC_CalibAverage_Enable;
8000106c:	e59f2234 	ldr	r2, [pc, #564]	; 800012a8 <.text+0x12a8>
80001070:	e3a03000 	mov	r3, #0	; 0x0
80001074:	e1c230b6 	strh	r3, [r2, #6]
  ADC_InitStructure.ADC_AutoClockOff = ADC_AutoClockOff_Disable ;
80001078:	e59f2228 	ldr	r2, [pc, #552]	; 800012a8 <.text+0x12a8>
8000107c:	e3a03000 	mov	r3, #0	; 0x0
80001080:	e1c230b8 	strh	r3, [r2, #8]
  ADC_InitStructure.ADC_ConversionMode = ADC_ConversionMode_Scan ;
80001084:	e59f221c 	ldr	r2, [pc, #540]	; 800012a8 <.text+0x12a8>
80001088:	e3a03902 	mov	r3, #32768	; 0x8000
8000108c:	e1c230ba 	strh	r3, [r2, #10]
  ADC_InitStructure.ADC_SamplingPrescaler = 0x2;
80001090:	e59f2210 	ldr	r2, [pc, #528]	; 800012a8 <.text+0x12a8>
80001094:	e3a03002 	mov	r3, #2	; 0x2
80001098:	e5c23001 	strb	r3, [r2, #1]
  ADC_InitStructure.ADC_ConversionPrescaler = 0x4;
8000109c:	e59f2204 	ldr	r2, [pc, #516]	; 800012a8 <.text+0x12a8>
800010a0:	e3a03004 	mov	r3, #4	; 0x4
800010a4:	e5c23002 	strb	r3, [r2, #2]
  ADC_InitStructure.ADC_FirstChannel = ADC_CHANNEL0 ;
800010a8:	e59f21f8 	ldr	r2, [pc, #504]	; 800012a8 <.text+0x12a8>
800010ac:	e3a03000 	mov	r3, #0	; 0x0
800010b0:	e5c23003 	strb	r3, [r2, #3]
  ADC_InitStructure.ADC_ChannelNumber = 1;
800010b4:	e59f21ec 	ldr	r2, [pc, #492]	; 800012a8 <.text+0x12a8>
800010b8:	e3a03001 	mov	r3, #1	; 0x1
800010bc:	e5c23004 	strb	r3, [r2, #4]
  ADC_Init (&ADC_InitStructure);
800010c0:	e59f01e0 	ldr	r0, [pc, #480]	; 800012a8 <.text+0x12a8>
800010c4:	eb0003d5 	bl	80002020 <ADC_Init>


  /* EOC interrupt Enable */
  ADC_ITConfig(ADC_IT_EOC, ENABLE);
800010c8:	e3a00002 	mov	r0, #2	; 0x2
800010cc:	e3a01001 	mov	r1, #1	; 0x1
800010d0:	eb00042e 	bl	80002190 <ADC_ITConfig>
  /* Enable ADC */
  ADC_Cmd(ENABLE);
800010d4:	e3a00001 	mov	r0, #1	; 0x1
800010d8:	eb00041c 	bl	80002150 <ADC_Cmd>
  /*---------------------------------LCD---------------------------------------*/

  /* LCD Configuration */
  LCD_Init();
800010dc:	eb000078 	bl	800012c4 <LCD_Init>
  LCD_LineClear(1);
800010e0:	e3a00001 	mov	r0, #1	; 0x1
800010e4:	eb0001dc 	bl	8000185c <LCD_LineClear>
  LCD_LineClear(2);
800010e8:	e3a00002 	mov	r0, #2	; 0x2
800010ec:	eb0001da 	bl	8000185c <LCD_LineClear>
  LCD_SetPosCur(1,1);
800010f0:	e3a00001 	mov	r0, #1	; 0x1
800010f4:	e3a01001 	mov	r1, #1	; 0x1
800010f8:	eb0001bc 	bl	800017f0 <LCD_SetPosCur>
  /* Display "STR730 IAR BOARD" message on LCD: Line 1 */
  LCD_SendStringByStep("STR730 IAR SYS", 1, 1);
800010fc:	e59f31a8 	ldr	r3, [pc, #424]	; 800012ac <.text+0x12ac>
80001100:	e1a00003 	mov	r0, r3
80001104:	e3a01001 	mov	r1, #1	; 0x1
80001108:	e3a02001 	mov	r2, #1	; 0x1
8000110c:	eb000152 	bl	8000165c <LCD_SendStringByStep>
  LCD_Wait (40000);
80001110:	e3a00b27 	mov	r0, #39936	; 0x9c00
80001114:	e2800040 	add	r0, r0, #64	; 0x40
80001118:	eb0001f2 	bl	800018e8 <LCD_Wait>
  LCD_SetPosCur(2,1);
8000111c:	e3a00002 	mov	r0, #2	; 0x2
80001120:	e3a01001 	mov	r1, #1	; 0x1
80001124:	eb0001b1 	bl	800017f0 <LCD_SetPosCur>
  /* Display "ADC:" message on LCD: Line 2 */
  LCD_SendStringByStep(buffer,2, 1);
80001128:	e59f0180 	ldr	r0, [pc, #384]	; 800012b0 <.text+0x12b0>
8000112c:	e3a01002 	mov	r1, #2	; 0x2
80001130:	e3a02001 	mov	r2, #1	; 0x1
80001134:	eb000148 	bl	8000165c <LCD_SendStringByStep>

 while(1)
 {
  /* Start ADC conversion */
   ADC_ConversionCmd (ADC_ConversionStart);
80001138:	e3a00001 	mov	r0, #1	; 0x1
8000113c:	eb0003f8 	bl	80002124 <ADC_ConversionCmd>
   buffer[8] = unite(Conversion_Value);
80001140:	e59f316c 	ldr	r3, [pc, #364]	; 800012b4 <.text+0x12b4>
80001144:	e1d330b0 	ldrh	r3, [r3]
80001148:	e1a00003 	mov	r0, r3
8000114c:	ebffff62 	bl	80000edc <unite>
80001150:	e1a03000 	mov	r3, r0
80001154:	e20330ff 	and	r3, r3, #255	; 0xff
80001158:	e59f2150 	ldr	r2, [pc, #336]	; 800012b0 <.text+0x12b0>
8000115c:	e5c23008 	strb	r3, [r2, #8]
   buffer[7] = dixaine(Conversion_Value);
80001160:	e59f314c 	ldr	r3, [pc, #332]	; 800012b4 <.text+0x12b4>
80001164:	e1d330b0 	ldrh	r3, [r3]
80001168:	e1a00003 	mov	r0, r3
8000116c:	ebffff3f 	bl	80000e70 <dixaine>
80001170:	e1a03000 	mov	r3, r0
80001174:	e20330ff 	and	r3, r3, #255	; 0xff
80001178:	e59f2130 	ldr	r2, [pc, #304]	; 800012b0 <.text+0x12b0>
8000117c:	e5c23007 	strb	r3, [r2, #7]
   buffer[6] = centaine(Conversion_Value);
80001180:	e59f312c 	ldr	r3, [pc, #300]	; 800012b4 <.text+0x12b4>
80001184:	e1d330b0 	ldrh	r3, [r3]
80001188:	e1a00003 	mov	r0, r3
8000118c:	ebffff1c 	bl	80000e04 <centaine>
80001190:	e1a03000 	mov	r3, r0
80001194:	e20330ff 	and	r3, r3, #255	; 0xff
80001198:	e59f2110 	ldr	r2, [pc, #272]	; 800012b0 <.text+0x12b0>
8000119c:	e5c23006 	strb	r3, [r2, #6]
   buffer[5] = millier(Conversion_Value);
800011a0:	e59f310c 	ldr	r3, [pc, #268]	; 800012b4 <.text+0x12b4>
800011a4:	e1d330b0 	ldrh	r3, [r3]
800011a8:	e1a00003 	mov	r0, r3
800011ac:	ebffff07 	bl	80000dd0 <millier>
800011b0:	e1a03000 	mov	r3, r0
800011b4:	e20330ff 	and	r3, r3, #255	; 0xff
800011b8:	e59f20f0 	ldr	r2, [pc, #240]	; 800012b0 <.text+0x12b0>
800011bc:	e5c23005 	strb	r3, [r2, #5]
   buffer[9] = 0;
800011c0:	e59f20e8 	ldr	r2, [pc, #232]	; 800012b0 <.text+0x12b0>
800011c4:	e3a03000 	mov	r3, #0	; 0x0
800011c8:	e5c23009 	strb	r3, [r2, #9]
   /* Display ADC conversion Value on LCD */
   LCD_SendStringByStep(&buffer[5],2, 5);
800011cc:	e59f30e4 	ldr	r3, [pc, #228]	; 800012b8 <.text+0x12b8>
800011d0:	e1a00003 	mov	r0, r3
800011d4:	e3a01002 	mov	r1, #2	; 0x2
800011d8:	e3a02005 	mov	r2, #5	; 0x5
800011dc:	eb00011e 	bl	8000165c <LCD_SendStringByStep>
   CPIO_Value = 0;
800011e0:	e3a03000 	mov	r3, #0	; 0x0
800011e4:	e50b3018 	str	r3, [fp, #-24]

   for(u32 i = (u32)((float)Conversion_Value/60); i; i--)
800011e8:	e59f30c4 	ldr	r3, [pc, #196]	; 800012b4 <.text+0x12b4>
800011ec:	e1d340b0 	ldrh	r4, [r3]
800011f0:	e1a03804 	mov	r3, r4, lsl #16
800011f4:	e1a03843 	mov	r3, r3, asr #16
800011f8:	e1a00003 	mov	r0, r3
800011fc:	eb000263 	bl	80001b90 <__aeabi_i2f>
80001200:	e50b001c 	str	r0, [fp, #-28]
80001204:	e1a03804 	mov	r3, r4, lsl #16
80001208:	e1a03843 	mov	r3, r3, asr #16
8000120c:	e3530000 	cmp	r3, #0	; 0x0
80001210:	aa000004 	bge	80001228 <main+0x2bc>
80001214:	e51b001c 	ldr	r0, [fp, #-28]
80001218:	e59f109c 	ldr	r1, [pc, #156]	; 800012bc <.text+0x12bc>
8000121c:	eb0001ea 	bl	800019cc <__addsf3>
80001220:	e1a03000 	mov	r3, r0
80001224:	e50b301c 	str	r3, [fp, #-28]
80001228:	e51b001c 	ldr	r0, [fp, #-28]
8000122c:	e59f108c 	ldr	r1, [pc, #140]	; 800012c0 <.text+0x12c0>
80001230:	eb0002f3 	bl	80001e04 <__aeabi_fdiv>
80001234:	e1a03000 	mov	r3, r0
80001238:	e1a00003 	mov	r0, r3
8000123c:	eb000348 	bl	80001f64 <__aeabi_f2uiz>
80001240:	e1a03000 	mov	r3, r0
80001244:	e50b3014 	str	r3, [fp, #-20]
80001248:	ea000008 	b	80001270 <main+0x304>
   {
    CPIO_Value <<= 1;
8000124c:	e51b3018 	ldr	r3, [fp, #-24]
80001250:	e1a03083 	mov	r3, r3, lsl #1
80001254:	e50b3018 	str	r3, [fp, #-24]
    CPIO_Value |= 1;
80001258:	e51b3018 	ldr	r3, [fp, #-24]
8000125c:	e3833001 	orr	r3, r3, #1	; 0x1
80001260:	e50b3018 	str	r3, [fp, #-24]
80001264:	e51b3014 	ldr	r3, [fp, #-20]
80001268:	e2433001 	sub	r3, r3, #1	; 0x1
8000126c:	e50b3014 	str	r3, [fp, #-20]
80001270:	e51b3014 	ldr	r3, [fp, #-20]
80001274:	e3530000 	cmp	r3, #0	; 0x0
80001278:	1afffff3 	bne	8000124c <main+0x2e0>
   }
   GPIO_WordWrite(GPIO0,CPIO_Value);
8000127c:	e51b3018 	ldr	r3, [fp, #-24]
80001280:	e1a03803 	mov	r3, r3, lsl #16
80001284:	e1a03823 	mov	r3, r3, lsr #16
80001288:	e3a0032a 	mov	r0, #-1476395008	; 0xa8000000
8000128c:	e1a008c0 	mov	r0, r0, asr #17
80001290:	e1a01003 	mov	r1, r3
80001294:	eb0004c3 	bl	800025a8 <GPIO_WordWrite>

  }
80001298:	eaffffa6 	b	80001138 <main+0x1cc>
8000129c:	a0000020 	andge	r0, r0, r0, lsr #32
800012a0:	a000001c 	andge	r0, r0, ip, lsl r0
800012a4:	a0000010 	andge	r0, r0, r0, lsl r0
800012a8:	a0000024 	andge	r0, r0, r4, lsr #32
800012ac:	800025b8 	strhih	r2, [r0], -r8
800012b0:	a0000000 	andge	r0, r0, r0
800012b4:	a000000c 	andge	r0, r0, ip
800012b8:	a0000005 	andge	r0, r0, r5
800012bc:	47800000 	strmi	r0, [r0, r0]
800012c0:	42700000 	rsbmis	r0, r0, #0	; 0x0

800012c4 <LCD_Init>:
* Output         : None
* Return         : None
*******************************************************************************/
void LCD_Init(void)
{
800012c4:	e1a0c00d 	mov	ip, sp
800012c8:	e92dd800 	stmdb	sp!, {fp, ip, lr, pc}
800012cc:	e24cb004 	sub	fp, ip, #4	; 0x4
  /* GPIO6 Clock Enable */
  CFG_PeripheralClockConfig(CFG_CLK_GPIO6 , ENABLE);
800012d0:	e3a00018 	mov	r0, #24	; 0x18
800012d4:	e3a01001 	mov	r1, #1	; 0x1
800012d8:	eb000336 	bl	80001fb8 <CFG_PeripheralClockConfig>
  /* GPIO6 Configuration */
  GPIO_InitStructure0.GPIO_Mode = GPIO_Mode_OUT_PP;
800012dc:	e59f216c 	ldr	r2, [pc, #364]	; 80001450 <.text+0x1450>
800012e0:	e3a03005 	mov	r3, #5	; 0x5
800012e4:	e1c230b2 	strh	r3, [r2, #2]
  GPIO_InitStructure0.GPIO_Pins = GPIO_PIN_0 | GPIO_PIN_1 |GPIO_PIN_10;
800012e8:	e59f2160 	ldr	r2, [pc, #352]	; 80001450 <.text+0x1450>
800012ec:	e3a03b01 	mov	r3, #1024	; 0x400
800012f0:	e2833003 	add	r3, r3, #3	; 0x3
800012f4:	e1c230b0 	strh	r3, [r2]
  GPIO_Init(GPIO6, &GPIO_InitStructure0);
800012f8:	e3e00dae 	mvn	r0, #11136	; 0x2b80
800012fc:	e240001f 	sub	r0, r0, #31	; 0x1f
80001300:	e59f1148 	ldr	r1, [pc, #328]	; 80001450 <.text+0x1450>
80001304:	eb00043d 	bl	80002400 <GPIO_Init>

  /* GPIO5 Clock Enable */
  CFG_PeripheralClockConfig(CFG_CLK_GPIO5 , ENABLE);
80001308:	e3a00017 	mov	r0, #23	; 0x17
8000130c:	e3a01001 	mov	r1, #1	; 0x1
80001310:	eb000328 	bl	80001fb8 <CFG_PeripheralClockConfig>
  /* GPIO5 Configuration */
  GPIO_InitStructure0.GPIO_Mode = GPIO_Mode_OUT_PP;
80001314:	e59f2134 	ldr	r2, [pc, #308]	; 80001450 <.text+0x1450>
80001318:	e3a03005 	mov	r3, #5	; 0x5
8000131c:	e1c230b2 	strh	r3, [r2, #2]
  GPIO_InitStructure0.GPIO_Pins = GPIO_PIN_12 | GPIO_PIN_13 |GPIO_PIN_14 |GPIO_PIN_15;
80001320:	e59f2128 	ldr	r2, [pc, #296]	; 80001450 <.text+0x1450>
80001324:	e3a03a0f 	mov	r3, #61440	; 0xf000
80001328:	e1c230b0 	strh	r3, [r2]
  GPIO_Init(GPIO5, &GPIO_InitStructure0);
8000132c:	e3e00dae 	mvn	r0, #11136	; 0x2b80
80001330:	e240002f 	sub	r0, r0, #47	; 0x2f
80001334:	e59f1114 	ldr	r1, [pc, #276]	; 80001450 <.text+0x1450>
80001338:	eb000430 	bl	80002400 <GPIO_Init>

  /* GPIO2 Clock Enable */
  CFG_PeripheralClockConfig(CFG_CLK_GPIO2 , ENABLE);
8000133c:	e3a00014 	mov	r0, #20	; 0x14
80001340:	e3a01001 	mov	r1, #1	; 0x1
80001344:	eb00031b 	bl	80001fb8 <CFG_PeripheralClockConfig>
  /* GPIO2 Configuration */
  GPIO_InitStructure0.GPIO_Mode = GPIO_Mode_OUT_PP;
80001348:	e59f2100 	ldr	r2, [pc, #256]	; 80001450 <.text+0x1450>
8000134c:	e3a03005 	mov	r3, #5	; 0x5
80001350:	e1c230b2 	strh	r3, [r2, #2]
  GPIO_InitStructure0.GPIO_Pins = GPIO_PIN_0;
80001354:	e59f20f4 	ldr	r2, [pc, #244]	; 80001450 <.text+0x1450>
80001358:	e3a03001 	mov	r3, #1	; 0x1
8000135c:	e1c230b0 	strh	r3, [r2]
  GPIO_Init(GPIO2, &GPIO_InitStructure0);
80001360:	e3e00daf 	mvn	r0, #11200	; 0x2bc0
80001364:	e240001f 	sub	r0, r0, #31	; 0x1f
80001368:	e59f10e0 	ldr	r1, [pc, #224]	; 80001450 <.text+0x1450>
8000136c:	eb000423 	bl	80002400 <GPIO_Init>
  GPIO_BitWrite(GPIO2, GPIO_PIN_0, Bit_SET);
80001370:	e3e00daf 	mvn	r0, #11200	; 0x2bc0
80001374:	e240001f 	sub	r0, r0, #31	; 0x1f
80001378:	e3a01001 	mov	r1, #1	; 0x1
8000137c:	e3a02001 	mov	r2, #1	; 0x1
80001380:	eb000474 	bl	80002558 <GPIO_BitWrite>

  // Wait 40 ms
  LCD_Wait(4000);
80001384:	e3a00efa 	mov	r0, #4000	; 0xfa0
80001388:	eb000156 	bl	800018e8 <LCD_Wait>
  LCD_Send_Command_4bit(0x30);
8000138c:	e3a00030 	mov	r0, #48	; 0x30
80001390:	eb00002f 	bl	80001454 <LCD_Send_Command_4bit>
  // Wait 6 ms
  LCD_Wait(600);
80001394:	e3a00f96 	mov	r0, #600	; 0x258
80001398:	eb000152 	bl	800018e8 <LCD_Wait>
  LCD_Send_Command_4bit(0x30);
8000139c:	e3a00030 	mov	r0, #48	; 0x30
800013a0:	eb00002b 	bl	80001454 <LCD_Send_Command_4bit>
  // Wait 6 ms
  LCD_Wait(600);
800013a4:	e3a00f96 	mov	r0, #600	; 0x258
800013a8:	eb00014e 	bl	800018e8 <LCD_Wait>
  LCD_Send_Command_4bit(0x30);
800013ac:	e3a00030 	mov	r0, #48	; 0x30
800013b0:	eb000027 	bl	80001454 <LCD_Send_Command_4bit>
  // Wait 6 ms
  LCD_Wait(600);
800013b4:	e3a00f96 	mov	r0, #600	; 0x258
800013b8:	eb00014a 	bl	800018e8 <LCD_Wait>
  LCD_Send_Command_4bit(0x20);
800013bc:	e3a00020 	mov	r0, #32	; 0x20
800013c0:	eb000023 	bl	80001454 <LCD_Send_Command_4bit>
  // Wait 6 ms
  LCD_Wait(600);
800013c4:	e3a00f96 	mov	r0, #600	; 0x258
800013c8:	eb000146 	bl	800018e8 <LCD_Wait>
  LCD_Send_Command_4bit(0x20);
800013cc:	e3a00020 	mov	r0, #32	; 0x20
800013d0:	eb00001f 	bl	80001454 <LCD_Send_Command_4bit>
  // Wait 6 ms
  LCD_Wait(600);
800013d4:	e3a00f96 	mov	r0, #600	; 0x258
800013d8:	eb000142 	bl	800018e8 <LCD_Wait>
  LCD_Send_Command_4bit(0xF0);
800013dc:	e3a000f0 	mov	r0, #240	; 0xf0
800013e0:	eb00001b 	bl	80001454 <LCD_Send_Command_4bit>
  // Wait 6 ms
  LCD_Wait(600);
800013e4:	e3a00f96 	mov	r0, #600	; 0x258
800013e8:	eb00013e 	bl	800018e8 <LCD_Wait>
  LCD_Send_Command_4bit(0x00);
800013ec:	e3a00000 	mov	r0, #0	; 0x0
800013f0:	eb000017 	bl	80001454 <LCD_Send_Command_4bit>
  // Wait 6 ms
  LCD_Wait(600);
800013f4:	e3a00f96 	mov	r0, #600	; 0x258
800013f8:	eb00013a 	bl	800018e8 <LCD_Wait>
  LCD_Send_Command_4bit(0x80);
800013fc:	e3a00080 	mov	r0, #128	; 0x80
80001400:	eb000013 	bl	80001454 <LCD_Send_Command_4bit>
  // Wait 6 ms
  LCD_Wait(600);
80001404:	e3a00f96 	mov	r0, #600	; 0x258
80001408:	eb000136 	bl	800018e8 <LCD_Wait>
  LCD_Send_Command_4bit(0x00);
8000140c:	e3a00000 	mov	r0, #0	; 0x0
80001410:	eb00000f 	bl	80001454 <LCD_Send_Command_4bit>
  // Wait 6 ms
  LCD_Wait(600);
80001414:	e3a00f96 	mov	r0, #600	; 0x258
80001418:	eb000132 	bl	800018e8 <LCD_Wait>
  LCD_Send_Command_4bit(0x10);
8000141c:	e3a00010 	mov	r0, #16	; 0x10
80001420:	eb00000b 	bl	80001454 <LCD_Send_Command_4bit>
  // Wait 6 ms
  LCD_Wait(600);
80001424:	e3a00f96 	mov	r0, #600	; 0x258
80001428:	eb00012e 	bl	800018e8 <LCD_Wait>
  LCD_Send_Command_4bit(0x00);
8000142c:	e3a00000 	mov	r0, #0	; 0x0
80001430:	eb000007 	bl	80001454 <LCD_Send_Command_4bit>
  // Wait 6 ms
  LCD_Wait(600);
80001434:	e3a00f96 	mov	r0, #600	; 0x258
80001438:	eb00012a 	bl	800018e8 <LCD_Wait>
  LCD_Send_Command_4bit(0x60);
8000143c:	e3a00060 	mov	r0, #96	; 0x60
80001440:	eb000003 	bl	80001454 <LCD_Send_Command_4bit>
  // Wait 6 ms
  LCD_Wait(600);
80001444:	e3a00f96 	mov	r0, #600	; 0x258
80001448:	eb000126 	bl	800018e8 <LCD_Wait>
   }
8000144c:	e89da800 	ldmia	sp, {fp, sp, pc}
80001450:	a0000030 	andge	r0, r0, r0, lsr r0

80001454 <LCD_Send_Command_4bit>:

/*******************************************************************************
* Function Name  : LCD_E_High
* Description    : Puts the LCD Enable line (E) high.
* Input          : None
* Output         : None
* Return         : None
*******************************************************************************/
void LCD_E_High(void)
{
  GPIO_BitWrite(GPIO6, LCD_PIN_E, Bit_SET);
}

/*******************************************************************************
* Function Name  : LCD_E_Low
* Description    : Puts the LCD Enable line (E) low.
* Input          : None
* Output         : None
* Return         : None
*******************************************************************************/
void LCD_E_Low(void)
{
  GPIO_BitWrite(GPIO6, LCD_PIN_E, Bit_RESET);
}

/*******************************************************************************
* Function name   : LCD_Send_Command_4bit
* Description     : Sends a command to the LCD.
* Input param     : Cmd: command to be sent.
* Output param    : None
* Return          : None
*******************************************************************************/
void LCD_Send_Command_4bit(u8 Cmd)
{
80001454:	e1a0c00d 	mov	ip, sp
80001458:	e92dd800 	stmdb	sp!, {fp, ip, lr, pc}
8000145c:	e24cb004 	sub	fp, ip, #4	; 0x4
80001460:	e24dd004 	sub	sp, sp, #4	; 0x4
80001464:	e1a03000 	mov	r3, r0
80001468:	e54b3010 	strb	r3, [fp, #-16]
     // Reset RW bit
     GPIO_BitWrite(GPIO6, LCD_PIN_RW, Bit_RESET);
8000146c:	e3e00dae 	mvn	r0, #11136	; 0x2b80
80001470:	e240001f 	sub	r0, r0, #31	; 0x1f
80001474:	e3a01b01 	mov	r1, #1024	; 0x400
80001478:	e3a02000 	mov	r2, #0	; 0x0
8000147c:	eb000435 	bl	80002558 <GPIO_BitWrite>

     // Reset RS bit
     GPIO_BitWrite(GPIO6, LCD_PIN_RS, Bit_RESET);
80001480:	e3e00dae 	mvn	r0, #11136	; 0x2b80
80001484:	e240001f 	sub	r0, r0, #31	; 0x1f
80001488:	e3a01002 	mov	r1, #2	; 0x2
8000148c:	e3a02000 	mov	r2, #0	; 0x0
80001490:	eb000430 	bl	80002558 <GPIO_BitWrite>

     // Set E bit
     GPIO_BitWrite(GPIO6, LCD_PIN_E, Bit_SET);
80001494:	e3e00dae 	mvn	r0, #11136	; 0x2b80
80001498:	e240001f 	sub	r0, r0, #31	; 0x1f
8000149c:	e3a01001 	mov	r1, #1	; 0x1
800014a0:	e3a02001 	mov	r2, #1	; 0x1
800014a4:	eb00042b 	bl	80002558 <GPIO_BitWrite>

     // Send the command
     GPIO_ByteWrite(GPIO5, GPIO_MSB, Cmd & 0xF0);
800014a8:	e55b2010 	ldrb	r2, [fp, #-16]
800014ac:	e3a030f0 	mov	r3, #240	; 0xf0
800014b0:	e0023003 	and	r3, r2, r3
800014b4:	e3e00dae 	mvn	r0, #11136	; 0x2b80
800014b8:	e240002f 	sub	r0, r0, #47	; 0x2f
800014bc:	e3a01008 	mov	r1, #8	; 0x8
800014c0:	e1a02003 	mov	r2, r3
800014c4:	eb00042c 	bl	8000257c <GPIO_ByteWrite>

     // Reset E bit
     GPIO_BitWrite(GPIO6, LCD_PIN_E, Bit_RESET);
800014c8:	e3e00dae 	mvn	r0, #11136	; 0x2b80
800014cc:	e240001f 	sub	r0, r0, #31	; 0x1f
800014d0:	e3a01001 	mov	r1, #1	; 0x1
800014d4:	e3a02000 	mov	r2, #0	; 0x0
800014d8:	eb00041e 	bl	80002558 <GPIO_BitWrite>

     // Cmd Shift
     Cmd = Cmd << 4;
800014dc:	e55b3010 	ldrb	r3, [fp, #-16]
800014e0:	e1a03203 	mov	r3, r3, lsl #4
800014e4:	e54b3010 	strb	r3, [fp, #-16]

     // Set E bit
    GPIO_BitWrite(GPIO6, LCD_PIN_E, Bit_SET);
800014e8:	e3e00dae 	mvn	r0, #11136	; 0x2b80
800014ec:	e240001f 	sub	r0, r0, #31	; 0x1f
800014f0:	e3a01001 	mov	r1, #1	; 0x1
800014f4:	e3a02001 	mov	r2, #1	; 0x1
800014f8:	eb000416 	bl	80002558 <GPIO_BitWrite>

    // Send the command
    GPIO_ByteWrite(GPIO5, GPIO_MSB, Cmd & 0xF0);
800014fc:	e55b2010 	ldrb	r2, [fp, #-16]
80001500:	e3a030f0 	mov	r3, #240	; 0xf0
80001504:	e0023003 	and	r3, r2, r3
80001508:	e3e00dae 	mvn	r0, #11136	; 0x2b80
8000150c:	e240002f 	sub	r0, r0, #47	; 0x2f
80001510:	e3a01008 	mov	r1, #8	; 0x8
80001514:	e1a02003 	mov	r2, r3
80001518:	eb000417 	bl	8000257c <GPIO_ByteWrite>

    // Reset E bit
    GPIO_BitWrite(GPIO6, LCD_PIN_E, Bit_RESET);
8000151c:	e3e00dae 	mvn	r0, #11136	; 0x2b80
80001520:	e240001f 	sub	r0, r0, #31	; 0x1f
80001524:	e3a01001 	mov	r1, #1	; 0x1
80001528:	e3a02000 	mov	r2, #0	; 0x0
8000152c:	eb000409 	bl	80002558 <GPIO_BitWrite>

      // Set RS bit
    GPIO_BitWrite(GPIO6, LCD_PIN_RS, Bit_SET);
80001530:	e3e00dae 	mvn	r0, #11136	; 0x2b80
80001534:	e240001f 	sub	r0, r0, #31	; 0x1f
80001538:	e3a01002 	mov	r1, #2	; 0x2
8000153c:	e3a02001 	mov	r2, #1	; 0x1
80001540:	eb000404 	bl	80002558 <GPIO_BitWrite>

     // Set RW bit
    GPIO_BitWrite(GPIO6, LCD_PIN_RW, Bit_SET);
80001544:	e3e00dae 	mvn	r0, #11136	; 0x2b80
80001548:	e240001f 	sub	r0, r0, #31	; 0x1f
8000154c:	e3a01b01 	mov	r1, #1024	; 0x400
80001550:	e3a02001 	mov	r2, #1	; 0x1
80001554:	eb0003ff 	bl	80002558 <GPIO_BitWrite>
}
80001558:	e89da808 	ldmia	sp, {r3, fp, sp, pc}

8000155c <LCD_SendData_4bit>:

/*******************************************************************************
* Function Name  : LCD_SendData_4bit
* Description    : Sends data to the LCD.
* Input          : Data: data to be displayed.
* Output         : None
* Return         : None
*******************************************************************************/
void LCD_SendData_4bit(u8 Data)
{
8000155c:	e1a0c00d 	mov	ip, sp
80001560:	e92dd800 	stmdb	sp!, {fp, ip, lr, pc}
80001564:	e24cb004 	sub	fp, ip, #4	; 0x4
80001568:	e24dd004 	sub	sp, sp, #4	; 0x4
8000156c:	e1a03000 	mov	r3, r0
80001570:	e54b3010 	strb	r3, [fp, #-16]

       // Set RS bit
     GPIO_BitWrite(GPIO6, LCD_PIN_RS, Bit_SET);
80001574:	e3e00dae 	mvn	r0, #11136	; 0x2b80
80001578:	e240001f 	sub	r0, r0, #31	; 0x1f
8000157c:	e3a01002 	mov	r1, #2	; 0x2
80001580:	e3a02001 	mov	r2, #1	; 0x1
80001584:	eb0003f3 	bl	80002558 <GPIO_BitWrite>

      // Reset RW bit
     GPIO_BitWrite(GPIO6, LCD_PIN_RW, Bit_RESET);
80001588:	e3e00dae 	mvn	r0, #11136	; 0x2b80
8000158c:	e240001f 	sub	r0, r0, #31	; 0x1f
80001590:	e3a01b01 	mov	r1, #1024	; 0x400
80001594:	e3a02000 	mov	r2, #0	; 0x0
80001598:	eb0003ee 	bl	80002558 <GPIO_BitWrite>

     // Set E bit
     GPIO_BitWrite(GPIO6, LCD_PIN_E, Bit_SET);
8000159c:	e3e00dae 	mvn	r0, #11136	; 0x2b80
800015a0:	e240001f 	sub	r0, r0, #31	; 0x1f
800015a4:	e3a01001 	mov	r1, #1	; 0x1
800015a8:	e3a02001 	mov	r2, #1	; 0x1
800015ac:	eb0003e9 	bl	80002558 <GPIO_BitWrite>

     // Data on GPIO_MSB
     GPIO_ByteWrite(GPIO5, GPIO_MSB, Data & 0xF0);
800015b0:	e55b2010 	ldrb	r2, [fp, #-16]
800015b4:	e3a030f0 	mov	r3, #240	; 0xf0
800015b8:	e0023003 	and	r3, r2, r3
800015bc:	e3e00dae 	mvn	r0, #11136	; 0x2b80
800015c0:	e240002f 	sub	r0, r0, #47	; 0x2f
800015c4:	e3a01008 	mov	r1, #8	; 0x8
800015c8:	e1a02003 	mov	r2, r3
800015cc:	eb0003ea 	bl	8000257c <GPIO_ByteWrite>


      // Reset E bit
     GPIO_BitWrite(GPIO6, LCD_PIN_E, Bit_RESET);
800015d0:	e3e00dae 	mvn	r0, #11136	; 0x2b80
800015d4:	e240001f 	sub	r0, r0, #31	; 0x1f
800015d8:	e3a01001 	mov	r1, #1	; 0x1
800015dc:	e3a02000 	mov	r2, #0	; 0x0
800015e0:	eb0003dc 	bl	80002558 <GPIO_BitWrite>

      // Data Shift
     Data = Data << 4;
800015e4:	e55b3010 	ldrb	r3, [fp, #-16]
800015e8:	e1a03203 	mov	r3, r3, lsl #4
800015ec:	e54b3010 	strb	r3, [fp, #-16]

      // Set E bit
     GPIO_BitWrite(GPIO6, LCD_PIN_E, Bit_SET);
800015f0:	e3e00dae 	mvn	r0, #11136	; 0x2b80
800015f4:	e240001f 	sub	r0, r0, #31	; 0x1f
800015f8:	e3a01001 	mov	r1, #1	; 0x1
800015fc:	e3a02001 	mov	r2, #1	; 0x1
80001600:	eb0003d4 	bl	80002558 <GPIO_BitWrite>

     // Data on GPIO_MSB
    GPIO_ByteWrite(GPIO5, GPIO_MSB, Data);
80001604:	e55b3010 	ldrb	r3, [fp, #-16]
80001608:	e3e00dae 	mvn	r0, #11136	; 0x2b80
8000160c:	e240002f 	sub	r0, r0, #47	; 0x2f
80001610:	e3a01008 	mov	r1, #8	; 0x8
80001614:	e1a02003 	mov	r2, r3
80001618:	eb0003d7 	bl	8000257c <GPIO_ByteWrite>


      // Reset E bit
     GPIO_BitWrite(GPIO6, LCD_PIN_E, Bit_RESET);
8000161c:	e3e00dae 	mvn	r0, #11136	; 0x2b80
80001620:	e240001f 	sub	r0, r0, #31	; 0x1f
80001624:	e3a01001 	mov	r1, #1	; 0x1
80001628:	e3a02000 	mov	r2, #0	; 0x0
8000162c:	eb0003c9 	bl	80002558 <GPIO_BitWrite>

      // Reset RS bit
     GPIO_BitWrite(GPIO6, LCD_PIN_RS, Bit_RESET);
80001630:	e3e00dae 	mvn	r0, #11136	; 0x2b80
80001634:	e240001f 	sub	r0, r0, #31	; 0x1f
80001638:	e3a01002 	mov	r1, #2	; 0x2
8000163c:	e3a02000 	mov	r2, #0	; 0x0
80001640:	eb0003c4 	bl	80002558 <GPIO_BitWrite>

      // Reset RW bit
     GPIO_BitWrite(GPIO6, LCD_PIN_RW, Bit_SET);
80001644:	e3e00dae 	mvn	r0, #11136	; 0x2b80
80001648:	e240001f 	sub	r0, r0, #31	; 0x1f
8000164c:	e3a01b01 	mov	r1, #1024	; 0x400
80001650:	e3a02001 	mov	r2, #1	; 0x1
80001654:	eb0003bf 	bl	80002558 <GPIO_BitWrite>
}
80001658:	e89da808 	ldmia	sp, {r3, fp, sp, pc}

8000165c <LCD_SendStringByStep>:

/*******************************************************************************
* Function Name  : LCD_SendString
* Description    : Displays a string on the LCD.
* Input          : - pBuffer: pointer to the buffer containing the data to be
*                    displayed on the LCD.
*                  - Line: specifies the line where the string will be displayed.
*                  - Column: specifies the start column from where the string will
*                    be displayed.
* Output         : None
* Return         : None
*******************************************************************************/
void LCD_SendString(u8 *pBuffer, u8 Line, u8 Column)
{
  u8 len = 0, count = 0;

  len = strlen(( const char *)pBuffer);

  if((len < (LCD_HALF_LENGTH + 2 - Column)))
  {
    LCD_SetPosCur(Line, Column);

    for(count =0; count < len; count++)
    {
      LCD_SendData_4bit(pBuffer[count]);
    }
  }
  else
  {
    LCD_SetPosCur(Line, Column);

    for(count = 0; count <= (LCD_HALF_LENGTH-Column); count++)
    {
      LCD_SendData_4bit(pBuffer[count]);
    }

    LCD_SetPosCur(2, 1);

    for(count = (LCD_HALF_LENGTH-Column+1); count < len; count++)
    {
      LCD_SendData_4bit(pBuffer[count]);
    }
  }
}

/*******************************************************************************
* Function Name  : LCD_SendStringByStep
* Description    : Displays a string on the LCD by step.
* Input          : - pBuffer: pointer to the buffer containing the data to be
*                    displayed on the LCD.
*                  - Line: specifies the line where the string will be displayed.
*                  - Column: specifies the start column from where the string will
*                    be displayed.
* Output         : None
* Return         : None
*******************************************************************************/
void LCD_SendStringByStep(u8 *pBuffer, u8 Line, u8 Column)
{
8000165c:	e1a0c00d 	mov	ip, sp
80001660:	e92dd800 	stmdb	sp!, {fp, ip, lr, pc}
80001664:	e24cb004 	sub	fp, ip, #4	; 0x4
80001668:	e24dd010 	sub	sp, sp, #16	; 0x10
8000166c:	e50b0014 	str	r0, [fp, #-20]
80001670:	e1a03001 	mov	r3, r1
80001674:	e54b3018 	strb	r3, [fp, #-24]
80001678:	e1a03002 	mov	r3, r2
8000167c:	e54b301c 	strb	r3, [fp, #-28]
  u8 len = 0, count = 0;
80001680:	e3a03000 	mov	r3, #0	; 0x0
80001684:	e54b300e 	strb	r3, [fp, #-14]
80001688:	e3a03000 	mov	r3, #0	; 0x0
8000168c:	e54b300d 	strb	r3, [fp, #-13]

  len = strlen(( const char *)pBuffer);
80001690:	e51b3014 	ldr	r3, [fp, #-20]
80001694:	e1a00003 	mov	r0, r3
80001698:	eb0000ae 	bl	80001958 <strlen>
8000169c:	e1a03000 	mov	r3, r0
800016a0:	e54b300e 	strb	r3, [fp, #-14]

  if(len < (LCD_HALF_LENGTH + 2 - Column))
800016a4:	e55b200e 	ldrb	r2, [fp, #-14]
800016a8:	e55b301c 	ldrb	r3, [fp, #-28]
800016ac:	e2633012 	rsb	r3, r3, #18	; 0x12
800016b0:	e1520003 	cmp	r2, r3
800016b4:	aa000019 	bge	80001720 <LCD_SendStringByStep+0xc4>
  {
    LCD_SetPosCur(Line, Column);
800016b8:	e55b3018 	ldrb	r3, [fp, #-24]
800016bc:	e55b201c 	ldrb	r2, [fp, #-28]
800016c0:	e1a00003 	mov	r0, r3
800016c4:	e1a01002 	mov	r1, r2
800016c8:	eb000048 	bl	800017f0 <LCD_SetPosCur>

    for(count =0; count < len; count++)
800016cc:	e3a03000 	mov	r3, #0	; 0x0
800016d0:	e54b300d 	strb	r3, [fp, #-13]
800016d4:	ea00000c 	b	8000170c <LCD_SendStringByStep+0xb0>
    {
      // wait 200 ms
    LCD_Wait(20000);
800016d8:	e3a00c4e 	mov	r0, #19968	; 0x4e00
800016dc:	e2800020 	add	r0, r0, #32	; 0x20
800016e0:	eb000080 	bl	800018e8 <LCD_Wait>
      LCD_SendData_4bit(pBuffer[count]);
800016e4:	e55b300d 	ldrb	r3, [fp, #-13]
800016e8:	e1a02003 	mov	r2, r3
800016ec:	e51b3014 	ldr	r3, [fp, #-20]
800016f0:	e0823003 	add	r3, r2, r3
800016f4:	e5d33000 	ldrb	r3, [r3]
800016f8:	e1a00003 	mov	r0, r3
800016fc:	ebffff96 	bl	8000155c <LCD_SendData_4bit>
80001700:	e55b300d 	ldrb	r3, [fp, #-13]
80001704:	e2833001 	add	r3, r3, #1	; 0x1
80001708:	e54b300d 	strb	r3, [fp, #-13]
8000170c:	e55b200d 	ldrb	r2, [fp, #-13]
80001710:	e55b300e 	ldrb	r3, [fp, #-14]
80001714:	e1520003 	cmp	r2, r3
80001718:	3affffee 	bcc	800016d8 <LCD_SendStringByStep+0x7c>
8000171c:	ea000031 	b	800017e8 <LCD_SendStringByStep+0x18c>
    }
  }
  else
  {
    LCD_SetPosCur(Line, Column);
80001720:	e55b3018 	ldrb	r3, [fp, #-24]
80001724:	e55b201c 	ldrb	r2, [fp, #-28]
80001728:	e1a00003 	mov	r0, r3
8000172c:	e1a01002 	mov	r1, r2
80001730:	eb00002e 	bl	800017f0 <LCD_SetPosCur>

    for(count = 0; count <= (LCD_HALF_LENGTH-Column); count++)
80001734:	e3a03000 	mov	r3, #0	; 0x0
80001738:	e54b300d 	strb	r3, [fp, #-13]
8000173c:	ea00000c 	b	80001774 <LCD_SendStringByStep+0x118>
    {
      // wait 200 ms
    LCD_Wait(20000);
80001740:	e3a00c4e 	mov	r0, #19968	; 0x4e00
80001744:	e2800020 	add	r0, r0, #32	; 0x20
80001748:	eb000066 	bl	800018e8 <LCD_Wait>
      LCD_SendData_4bit(pBuffer[count]);
8000174c:	e55b300d 	ldrb	r3, [fp, #-13]
80001750:	e1a02003 	mov	r2, r3
80001754:	e51b3014 	ldr	r3, [fp, #-20]
80001758:	e0823003 	add	r3, r2, r3
8000175c:	e5d33000 	ldrb	r3, [r3]
80001760:	e1a00003 	mov	r0, r3
80001764:	ebffff7c 	bl	8000155c <LCD_SendData_4bit>
80001768:	e55b300d 	ldrb	r3, [fp, #-13]
8000176c:	e2833001 	add	r3, r3, #1	; 0x1
80001770:	e54b300d 	strb	r3, [fp, #-13]
80001774:	e55b300d 	ldrb	r3, [fp, #-13]
80001778:	e55b201c 	ldrb	r2, [fp, #-28]
8000177c:	e2622010 	rsb	r2, r2, #16	; 0x10
80001780:	e1530002 	cmp	r3, r2
80001784:	daffffed 	ble	80001740 <LCD_SendStringByStep+0xe4>
    }

    LCD_SetPosCur(2, 1);
80001788:	e3a00002 	mov	r0, #2	; 0x2
8000178c:	e3a01001 	mov	r1, #1	; 0x1
80001790:	eb000016 	bl	800017f0 <LCD_SetPosCur>

    for(count = (LCD_HALF_LENGTH-Column+1); count < len; count++)
80001794:	e55b301c 	ldrb	r3, [fp, #-28]
80001798:	e2633011 	rsb	r3, r3, #17	; 0x11
8000179c:	e54b300d 	strb	r3, [fp, #-13]
800017a0:	ea00000c 	b	800017d8 <LCD_SendStringByStep+0x17c>
    {
      // wait 200 ms
   LCD_Wait(20000);
800017a4:	e3a00c4e 	mov	r0, #19968	; 0x4e00
800017a8:	e2800020 	add	r0, r0, #32	; 0x20
800017ac:	eb00004d 	bl	800018e8 <LCD_Wait>
      LCD_SendData_4bit(pBuffer[count]);
800017b0:	e55b300d 	ldrb	r3, [fp, #-13]
800017b4:	e1a02003 	mov	r2, r3
800017b8:	e51b3014 	ldr	r3, [fp, #-20]
800017bc:	e0823003 	add	r3, r2, r3
800017c0:	e5d33000 	ldrb	r3, [r3]
800017c4:	e1a00003 	mov	r0, r3
800017c8:	ebffff63 	bl	8000155c <LCD_SendData_4bit>
800017cc:	e55b300d 	ldrb	r3, [fp, #-13]
800017d0:	e2833001 	add	r3, r3, #1	; 0x1
800017d4:	e54b300d 	strb	r3, [fp, #-13]
800017d8:	e55b200d 	ldrb	r2, [fp, #-13]
800017dc:	e55b300e 	ldrb	r3, [fp, #-14]
800017e0:	e1520003 	cmp	r2, r3
800017e4:	3affffee 	bcc	800017a4 <LCD_SendStringByStep+0x148>
    }
  }
}
800017e8:	e24bd00c 	sub	sp, fp, #12	; 0xc
800017ec:	e89da800 	ldmia	sp, {fp, sp, pc}

800017f0 <LCD_SetPosCur>:

/*******************************************************************************
* Function Name  : LCD_SendStringPinPong
* Description    : Displays a string on the LCD as ping pong.
* Input          : - pBuffer: pointer to the buffer containing the data to be
*                    displayed on the LCD.
*                  - Line: specifies the line where the string will be displayed.
*                  - nTime: number of ping pong.
* Output         :
* Return         : None
*******************************************************************************/
void LCD_SendStringPinPong(u8 *pBuffer, u8 Line, u32 nTime)
{
  u8 len = 0, index = 1;
  bool Direction = TRUE;

  len = strlen(( const char *)pBuffer);

  while(nTime--)
  {
    if(Direction)
    {
      LCD_SendString(pBuffer, Line, index);
      // wait 200 ms
       LCD_Wait(20000);
      index++;
      LCD_LineClear(Line);
      if(index == (LCD_HALF_LENGTH - len) + 1)
      {
        Direction = FALSE;
      }
    }
    else
    {
      LCD_SendString(pBuffer, Line, index);
      // wait 200 ms
       LCD_Wait(20000);
      index--;
      LCD_LineClear(Line);
      if(index == 1)
      {
        Direction = TRUE;
      }
    }
  }
}

/*******************************************************************************
* Function Name  : LCD_SetPosCur
* Description    : Sets the line and column position of the LCD cursor.
* Input          : - Line: specifies the cursor's line position.
*                  - Column: specifies cursor's column position.
* Output         : None
* Return         : None
*******************************************************************************/
void LCD_SetPosCur(u8 Line, u8 Column)
{
800017f0:	e1a0c00d 	mov	ip, sp
800017f4:	e92dd800 	stmdb	sp!, {fp, ip, lr, pc}
800017f8:	e24cb004 	sub	fp, ip, #4	; 0x4
800017fc:	e24dd008 	sub	sp, sp, #8	; 0x8
80001800:	e1a03000 	mov	r3, r0
80001804:	e1a02001 	mov	r2, r1
80001808:	e54b3010 	strb	r3, [fp, #-16]
8000180c:	e1a03002 	mov	r3, r2
80001810:	e54b3014 	strb	r3, [fp, #-20]
  if(Line == 1)
80001814:	e55b3010 	ldrb	r3, [fp, #-16]
80001818:	e3530001 	cmp	r3, #1	; 0x1
8000181c:	1a000003 	bne	80001830 <LCD_SetPosCur+0x40>
  {
    Column = Column - 1;
80001820:	e55b3014 	ldrb	r3, [fp, #-20]
80001824:	e2433001 	sub	r3, r3, #1	; 0x1
80001828:	e54b3014 	strb	r3, [fp, #-20]
8000182c:	ea000002 	b	8000183c <LCD_SetPosCur+0x4c>
  }
  else
  {
    Column = Column -1  + 64;
80001830:	e55b3014 	ldrb	r3, [fp, #-20]
80001834:	e283303f 	add	r3, r3, #63	; 0x3f
80001838:	e54b3014 	strb	r3, [fp, #-20]
  }

  LCD_Send_Command_4bit(Column | 0x80);
8000183c:	e55b3014 	ldrb	r3, [fp, #-20]
80001840:	e1e03c83 	mvn	r3, r3, lsl #25
80001844:	e1e03ca3 	mvn	r3, r3, lsr #25
80001848:	e20330ff 	and	r3, r3, #255	; 0xff
8000184c:	e1a00003 	mov	r0, r3
80001850:	ebfffeff 	bl	80001454 <LCD_Send_Command_4bit>
}
80001854:	e24bd00c 	sub	sp, fp, #12	; 0xc
80001858:	e89da800 	ldmia	sp, {fp, sp, pc}

8000185c <LCD_LineClear>:

/*******************************************************************************
* Function Name  : LCD_Clear
* Description    : Clears the LCD display.
* Input          : None
* Output         : None
* Return         : None
*******************************************************************************/
void LCD_Clear(void)
{
  /* reset RS bit */
  GPIO_BitWrite(GPIO6, LCD_PIN_RS, Bit_RESET);

  /* send "DISPLAY CLEAR COMMAND" command */
  LCD_Send_Command_4bit(LCD_CMD_CLR_DISP);

}

/*******************************************************************************
* Function Name  : LCD_LineClear
* Description    : Clears the LCD specified line.
* Input          : Line: line to be cleared.
* Output         : None
* Return         : None
*******************************************************************************/
void LCD_LineClear(u8 Line)
{
8000185c:	e1a0c00d 	mov	ip, sp
80001860:	e92dd800 	stmdb	sp!, {fp, ip, lr, pc}
80001864:	e24cb004 	sub	fp, ip, #4	; 0x4
80001868:	e24dd008 	sub	sp, sp, #8	; 0x8
8000186c:	e1a03000 	mov	r3, r0
80001870:	e54b3014 	strb	r3, [fp, #-20]
  u8 j = 0;
80001874:	e3a03000 	mov	r3, #0	; 0x0
80001878:	e54b300d 	strb	r3, [fp, #-13]

  /* reset RS bit */
  GPIO_BitWrite(GPIO6, LCD_PIN_RS, Bit_RESET);
8000187c:	e3e00dae 	mvn	r0, #11136	; 0x2b80
80001880:	e240001f 	sub	r0, r0, #31	; 0x1f
80001884:	e3a01002 	mov	r1, #2	; 0x2
80001888:	e3a02000 	mov	r2, #0	; 0x0
8000188c:	eb000331 	bl	80002558 <GPIO_BitWrite>

  LCD_SetPosCur(Line, 1);
80001890:	e55b3014 	ldrb	r3, [fp, #-20]
80001894:	e1a00003 	mov	r0, r3
80001898:	e3a01001 	mov	r1, #1	; 0x1
8000189c:	ebffffd3 	bl	800017f0 <LCD_SetPosCur>

  /* set RS bit */
  GPIO_BitWrite(GPIO6, LCD_PIN_RS, Bit_SET);
800018a0:	e3e00dae 	mvn	r0, #11136	; 0x2b80
800018a4:	e240001f 	sub	r0, r0, #31	; 0x1f
800018a8:	e3a01002 	mov	r1, #2	; 0x2
800018ac:	e3a02001 	mov	r2, #1	; 0x1
800018b0:	eb000328 	bl	80002558 <GPIO_BitWrite>

  /* write LCD_HALF_LENGTH spaces to clear the line */
  for(j = LCD_HALF_LENGTH; j != 0; j--)
800018b4:	e3a03010 	mov	r3, #16	; 0x10
800018b8:	e54b300d 	strb	r3, [fp, #-13]
800018bc:	ea000004 	b	800018d4 <LCD_LineClear+0x78>
  {
    LCD_SendData_4bit(' ');
800018c0:	e3a00020 	mov	r0, #32	; 0x20
800018c4:	ebffff24 	bl	8000155c <LCD_SendData_4bit>
800018c8:	e55b300d 	ldrb	r3, [fp, #-13]
800018cc:	e2433001 	sub	r3, r3, #1	; 0x1
800018d0:	e54b300d 	strb	r3, [fp, #-13]
800018d4:	e55b300d 	ldrb	r3, [fp, #-13]
800018d8:	e3530000 	cmp	r3, #0	; 0x0
800018dc:	1afffff7 	bne	800018c0 <LCD_LineClear+0x64>
  }
}
800018e0:	e24bd00c 	sub	sp, fp, #12	; 0xc
800018e4:	e89da800 	ldmia	sp, {fp, sp, pc}

800018e8 <LCD_Wait>:

/*******************************************************************************
* Function Name  : LCD_DigitDisplay
* Description    : Displays a digit on the LCD.
* Input          : - Digit: digit to be displayed.
*                  - Line: specifies the line where the digit will be displayed.
*                  - Column: specifies the start column from where the digit will
*                    be displayed.
* Output         : None
* Return         : None
*******************************************************************************/
void LCD_DigitDisplay(u8 Digit, u8 Line, u8 Column)
{
  LCD_SetPosCur(Line, Column);

  LCD_SendData_4bit(Digit + 48);
}

/*******************************************************************************
* Function Name  : LCD_Wait
* Description    : Inserts a delay.
* Input          : nTime: specifies the time-out value.
* Output         : LCDDelay: incremented each 125 s in TB1 interrupt handler
*                  routine and used to define the time-out value.
* Return         : None
*******************************************************************************/
void LCD_Wait(u32 nTime)
{
800018e8:	e1a0c00d 	mov	ip, sp
800018ec:	e92dd800 	stmdb	sp!, {fp, ip, lr, pc}
800018f0:	e24cb004 	sub	fp, ip, #4	; 0x4
800018f4:	e24dd004 	sub	sp, sp, #4	; 0x4
800018f8:	e50b0010 	str	r0, [fp, #-16]
  LCDDelay = 0;
800018fc:	e59f3050 	ldr	r3, [pc, #80]	; 80001954 <.text+0x1954>
80001900:	e3a02000 	mov	r2, #0	; 0x0
80001904:	e1c320b0 	strh	r2, [r3]

  while(LCDDelay < nTime)
80001908:	ea000008 	b	80001930 <LCD_Wait+0x48>
  {
    LCDDelay++;
8000190c:	e59f3040 	ldr	r3, [pc, #64]	; 80001954 <.text+0x1954>
80001910:	e1d330b0 	ldrh	r3, [r3]
80001914:	e1a03803 	mov	r3, r3, lsl #16
80001918:	e1a03823 	mov	r3, r3, lsr #16
8000191c:	e2833001 	add	r3, r3, #1	; 0x1
80001920:	e1a03803 	mov	r3, r3, lsl #16
80001924:	e1a02823 	mov	r2, r3, lsr #16
80001928:	e59f3024 	ldr	r3, [pc, #36]	; 80001954 <.text+0x1954>
8000192c:	e1c320b0 	strh	r2, [r3]
80001930:	e59f301c 	ldr	r3, [pc, #28]	; 80001954 <.text+0x1954>
80001934:	e1d330b0 	ldrh	r3, [r3]
80001938:	e1a03803 	mov	r3, r3, lsl #16
8000193c:	e1a03823 	mov	r3, r3, lsr #16
80001940:	e1a02003 	mov	r2, r3
80001944:	e51b3010 	ldr	r3, [fp, #-16]
80001948:	e1520003 	cmp	r2, r3
8000194c:	3affffee 	bcc	8000190c <LCD_Wait+0x24>
  }
}
80001950:	e89da808 	ldmia	sp, {r3, fp, sp, pc}
80001954:	a000000e 	andge	r0, r0, lr

80001958 <strlen>:
80001958:	e3100003 	tst	r0, #3	; 0x3
8000195c:	e1a01000 	mov	r1, r0
80001960:	1a00000e 	bne	800019a0 <strlen+0x48>
80001964:	e5902000 	ldr	r2, [r0]
80001968:	ea000000 	b	80001970 <strlen+0x18>
8000196c:	e5b02004 	ldr	r2, [r0, #4]!
80001970:	e28234ff 	add	r3, r2, #-16777216	; 0xff000000
80001974:	e2433801 	sub	r3, r3, #65536	; 0x10000
80001978:	e2433c01 	sub	r3, r3, #256	; 0x100
8000197c:	e2433001 	sub	r3, r3, #1	; 0x1
80001980:	e1e02002 	mvn	r2, r2
80001984:	e0033002 	and	r3, r3, r2
80001988:	e3c3347f 	bic	r3, r3, #2130706432	; 0x7f000000
8000198c:	e3c3387f 	bic	r3, r3, #8323072	; 0x7f0000
80001990:	e3c33c7f 	bic	r3, r3, #32512	; 0x7f00
80001994:	e3c3307f 	bic	r3, r3, #127	; 0x7f
80001998:	e3530000 	cmp	r3, #0	; 0x0
8000199c:	0afffff2 	beq	8000196c <strlen+0x14>
800019a0:	e5d03000 	ldrb	r3, [r0]
800019a4:	e3530000 	cmp	r3, #0	; 0x0
800019a8:	0a000002 	beq	800019b8 <strlen+0x60>
800019ac:	e5f03001 	ldrb	r3, [r0, #1]!
800019b0:	e3530000 	cmp	r3, #0	; 0x0
800019b4:	1afffffc 	bne	800019ac <strlen+0x54>
800019b8:	e0610000 	rsb	r0, r1, r0
800019bc:	e12fff1e 	bx	lr

800019c0 <__aeabi_frsub>:
800019c0:	e2200102 	eor	r0, r0, #-2147483648	; 0x80000000
800019c4:	ea000000 	b	800019cc <__addsf3>

800019c8 <__aeabi_fsub>:
800019c8:	e2211102 	eor	r1, r1, #-2147483648	; 0x80000000

800019cc <__addsf3>:
800019cc:	e1b02080 	movs	r2, r0, lsl #1
800019d0:	11b03081 	movnes	r3, r1, lsl #1
800019d4:	11320003 	teqne	r2, r3
800019d8:	11f0cc42 	mvnnes	ip, r2, asr #24
800019dc:	11f0cc43 	mvnnes	ip, r3, asr #24
800019e0:	0a000047 	beq	80001b04 <__addsf3+0x138>
800019e4:	e1a02c22 	mov	r2, r2, lsr #24
800019e8:	e0723c23 	rsbs	r3, r2, r3, lsr #24
800019ec:	c0822003 	addgt	r2, r2, r3
800019f0:	c0201001 	eorgt	r1, r0, r1
800019f4:	c0210000 	eorgt	r0, r1, r0
800019f8:	c0201001 	eorgt	r1, r0, r1
800019fc:	b2633000 	rsblt	r3, r3, #0	; 0x0
80001a00:	e3530019 	cmp	r3, #25	; 0x19
80001a04:	812fff1e 	bxhi	lr
80001a08:	e3100102 	tst	r0, #-2147483648	; 0x80000000
80001a0c:	e3800502 	orr	r0, r0, #8388608	; 0x800000
80001a10:	e3c004ff 	bic	r0, r0, #-16777216	; 0xff000000
80001a14:	12600000 	rsbne	r0, r0, #0	; 0x0
80001a18:	e3110102 	tst	r1, #-2147483648	; 0x80000000
80001a1c:	e3811502 	orr	r1, r1, #8388608	; 0x800000
80001a20:	e3c114ff 	bic	r1, r1, #-16777216	; 0xff000000
80001a24:	12611000 	rsbne	r1, r1, #0	; 0x0
80001a28:	e1320003 	teq	r2, r3
80001a2c:	0a00002e 	beq	80001aec <__addsf3+0x120>
80001a30:	e2422001 	sub	r2, r2, #1	; 0x1
80001a34:	e0900351 	adds	r0, r0, r1, asr r3
80001a38:	e2633020 	rsb	r3, r3, #32	; 0x20
80001a3c:	e1a01311 	mov	r1, r1, lsl r3
80001a40:	e2003102 	and	r3, r0, #-2147483648	; 0x80000000
80001a44:	5a000001 	bpl	80001a50 <__addsf3+0x84>
80001a48:	e2711000 	rsbs	r1, r1, #0	; 0x0
80001a4c:	e2e00000 	rsc	r0, r0, #0	; 0x0
80001a50:	e3500502 	cmp	r0, #8388608	; 0x800000
80001a54:	3a00000b 	bcc	80001a88 <__addsf3+0xbc>
80001a58:	e3500401 	cmp	r0, #16777216	; 0x1000000
80001a5c:	3a000004 	bcc	80001a74 <__addsf3+0xa8>
80001a60:	e1b000a0 	movs	r0, r0, lsr #1
80001a64:	e1a01061 	mov	r1, r1, rrx
80001a68:	e2822001 	add	r2, r2, #1	; 0x1
80001a6c:	e35200fe 	cmp	r2, #254	; 0xfe
80001a70:	2a000038 	bcs	80001b58 <__addsf3+0x18c>
80001a74:	e3510102 	cmp	r1, #-2147483648	; 0x80000000
80001a78:	e0a00b82 	adc	r0, r0, r2, lsl #23
80001a7c:	03c00001 	biceq	r0, r0, #1	; 0x1
80001a80:	e1800003 	orr	r0, r0, r3
80001a84:	e12fff1e 	bx	lr
80001a88:	e1b01081 	movs	r1, r1, lsl #1
80001a8c:	e0a00000 	adc	r0, r0, r0
80001a90:	e3100502 	tst	r0, #8388608	; 0x800000
80001a94:	e2422001 	sub	r2, r2, #1	; 0x1
80001a98:	1afffff5 	bne	80001a74 <__addsf3+0xa8>
80001a9c:	e1b0c620 	movs	ip, r0, lsr #12
80001aa0:	01a00600 	moveq	r0, r0, lsl #12
80001aa4:	0242200c 	subeq	r2, r2, #12	; 0xc
80001aa8:	e31008ff 	tst	r0, #16711680	; 0xff0000
80001aac:	01a00400 	moveq	r0, r0, lsl #8
80001ab0:	02422008 	subeq	r2, r2, #8	; 0x8
80001ab4:	e310060f 	tst	r0, #15728640	; 0xf00000
80001ab8:	01a00200 	moveq	r0, r0, lsl #4
80001abc:	02422004 	subeq	r2, r2, #4	; 0x4
80001ac0:	e3100503 	tst	r0, #12582912	; 0xc00000
80001ac4:	01a00100 	moveq	r0, r0, lsl #2
80001ac8:	02422002 	subeq	r2, r2, #2	; 0x2
80001acc:	e3500502 	cmp	r0, #8388608	; 0x800000
80001ad0:	31a00080 	movcc	r0, r0, lsl #1
80001ad4:	e2d22000 	sbcs	r2, r2, #0	; 0x0
80001ad8:	a0800b82 	addge	r0, r0, r2, lsl #23
80001adc:	b2622000 	rsblt	r2, r2, #0	; 0x0
80001ae0:	a1800003 	orrge	r0, r0, r3
80001ae4:	b1830230 	orrlt	r0, r3, r0, lsr r2
80001ae8:	e12fff1e 	bx	lr
80001aec:	e3320000 	teq	r2, #0	; 0x0
80001af0:	e2211502 	eor	r1, r1, #8388608	; 0x800000
80001af4:	02200502 	eoreq	r0, r0, #8388608	; 0x800000
80001af8:	02822001 	addeq	r2, r2, #1	; 0x1
80001afc:	12433001 	subne	r3, r3, #1	; 0x1
80001b00:	eaffffca 	b	80001a30 <__addsf3+0x64>
80001b04:	e1a03081 	mov	r3, r1, lsl #1
80001b08:	e1f0cc42 	mvns	ip, r2, asr #24
80001b0c:	11f0cc43 	mvnnes	ip, r3, asr #24
80001b10:	0a000013 	beq	80001b64 <__addsf3+0x198>
80001b14:	e1320003 	teq	r2, r3
80001b18:	0a000002 	beq	80001b28 <__addsf3+0x15c>
80001b1c:	e3320000 	teq	r2, #0	; 0x0
80001b20:	01a00001 	moveq	r0, r1
80001b24:	e12fff1e 	bx	lr
80001b28:	e1300001 	teq	r0, r1
80001b2c:	13a00000 	movne	r0, #0	; 0x0
80001b30:	112fff1e 	bxne	lr
80001b34:	e31204ff 	tst	r2, #-16777216	; 0xff000000
80001b38:	1a000002 	bne	80001b48 <__addsf3+0x17c>
80001b3c:	e1b00080 	movs	r0, r0, lsl #1
80001b40:	23800102 	orrcs	r0, r0, #-2147483648	; 0x80000000
80001b44:	e12fff1e 	bx	lr
80001b48:	e2922402 	adds	r2, r2, #33554432	; 0x2000000
80001b4c:	32800502 	addcc	r0, r0, #8388608	; 0x800000
80001b50:	312fff1e 	bxcc	lr
80001b54:	e2003102 	and	r3, r0, #-2147483648	; 0x80000000
80001b58:	e383047f 	orr	r0, r3, #2130706432	; 0x7f000000
80001b5c:	e3800502 	orr	r0, r0, #8388608	; 0x800000
80001b60:	e12fff1e 	bx	lr
80001b64:	e1f02c42 	mvns	r2, r2, asr #24
80001b68:	11a00001 	movne	r0, r1
80001b6c:	01f03c43 	mvneqs	r3, r3, asr #24
80001b70:	11a01000 	movne	r1, r0
80001b74:	e1b02480 	movs	r2, r0, lsl #9
80001b78:	01b03481 	moveqs	r3, r1, lsl #9
80001b7c:	01300001 	teqeq	r0, r1
80001b80:	13800501 	orrne	r0, r0, #4194304	; 0x400000
80001b84:	e12fff1e 	bx	lr

80001b88 <__aeabi_ui2f>:
80001b88:	e3a03000 	mov	r3, #0	; 0x0
80001b8c:	ea000001 	b	80001b98 <__aeabi_i2f+0x8>

80001b90 <__aeabi_i2f>:
80001b90:	e2103102 	ands	r3, r0, #-2147483648	; 0x80000000
80001b94:	42600000 	rsbmi	r0, r0, #0	; 0x0
80001b98:	e1b0c000 	movs	ip, r0
80001b9c:	012fff1e 	bxeq	lr
80001ba0:	e383344b 	orr	r3, r3, #1258291200	; 0x4b000000
80001ba4:	e1a01000 	mov	r1, r0
80001ba8:	e3a00000 	mov	r0, #0	; 0x0
80001bac:	ea00000f 	b	80001bf0 <__aeabi_l2f+0x30>

80001bb0 <__aeabi_ul2f>:
80001bb0:	e1902001 	orrs	r2, r0, r1
80001bb4:	012fff1e 	bxeq	lr
80001bb8:	e3a03000 	mov	r3, #0	; 0x0
80001bbc:	ea000005 	b	80001bd8 <__aeabi_l2f+0x18>

80001bc0 <__aeabi_l2f>:
80001bc0:	e1902001 	orrs	r2, r0, r1
80001bc4:	012fff1e 	bxeq	lr
80001bc8:	e2113102 	ands	r3, r1, #-2147483648	; 0x80000000
80001bcc:	5a000001 	bpl	80001bd8 <__aeabi_l2f+0x18>
80001bd0:	e2700000 	rsbs	r0, r0, #0	; 0x0
80001bd4:	e2e11000 	rsc	r1, r1, #0	; 0x0
80001bd8:	e1b0c001 	movs	ip, r1
80001bdc:	01a0c000 	moveq	ip, r0
80001be0:	01a01000 	moveq	r1, r0
80001be4:	03a00000 	moveq	r0, #0	; 0x0
80001be8:	e383345b 	orr	r3, r3, #1526726656	; 0x5b000000
80001bec:	02433201 	subeq	r3, r3, #268435456	; 0x10000000
80001bf0:	e2433502 	sub	r3, r3, #8388608	; 0x800000
80001bf4:	e3a02017 	mov	r2, #23	; 0x17
80001bf8:	e35c0801 	cmp	ip, #65536	; 0x10000
80001bfc:	21a0c82c 	movcs	ip, ip, lsr #16
80001c00:	22422010 	subcs	r2, r2, #16	; 0x10
80001c04:	e35c0c01 	cmp	ip, #256	; 0x100
80001c08:	21a0c42c 	movcs	ip, ip, lsr #8
80001c0c:	22422008 	subcs	r2, r2, #8	; 0x8
80001c10:	e35c0010 	cmp	ip, #16	; 0x10
80001c14:	21a0c22c 	movcs	ip, ip, lsr #4
80001c18:	22422004 	subcs	r2, r2, #4	; 0x4
80001c1c:	e35c0004 	cmp	ip, #4	; 0x4
80001c20:	22422002 	subcs	r2, r2, #2	; 0x2
80001c24:	304220ac 	subcc	r2, r2, ip, lsr #1
80001c28:	e05221ac 	subs	r2, r2, ip, lsr #3
80001c2c:	e0433b82 	sub	r3, r3, r2, lsl #23
80001c30:	ba000006 	blt	80001c50 <__aeabi_l2f+0x90>
80001c34:	e0833211 	add	r3, r3, r1, lsl r2
80001c38:	e1a0c210 	mov	ip, r0, lsl r2
80001c3c:	e2622020 	rsb	r2, r2, #32	; 0x20
80001c40:	e35c0102 	cmp	ip, #-2147483648	; 0x80000000
80001c44:	e0a30230 	adc	r0, r3, r0, lsr r2
80001c48:	03c00001 	biceq	r0, r0, #1	; 0x1
80001c4c:	e12fff1e 	bx	lr
80001c50:	e2822020 	add	r2, r2, #32	; 0x20
80001c54:	e1a0c211 	mov	ip, r1, lsl r2
80001c58:	e2622020 	rsb	r2, r2, #32	; 0x20
80001c5c:	e190008c 	orrs	r0, r0, ip, lsl #1
80001c60:	e0a30231 	adc	r0, r3, r1, lsr r2
80001c64:	01c00fac 	biceq	r0, r0, ip, lsr #31
80001c68:	e12fff1e 	bx	lr

80001c6c <__aeabi_fmul>:
80001c6c:	e3a0c0ff 	mov	ip, #255	; 0xff
80001c70:	e01c2ba0 	ands	r2, ip, r0, lsr #23
80001c74:	101c3ba1 	andnes	r3, ip, r1, lsr #23
80001c78:	1132000c 	teqne	r2, ip
80001c7c:	1133000c 	teqne	r3, ip
80001c80:	0a00003e 	beq	80001d80 <__aeabi_fmul+0x114>
80001c84:	e0822003 	add	r2, r2, r3
80001c88:	e020c001 	eor	ip, r0, r1
80001c8c:	e1b00480 	movs	r0, r0, lsl #9
80001c90:	11b01481 	movnes	r1, r1, lsl #9
80001c94:	0a000010 	beq	80001cdc <__aeabi_fmul+0x70>
80001c98:	e3a03302 	mov	r3, #134217728	; 0x8000000
80001c9c:	e18302a0 	orr	r0, r3, r0, lsr #5
80001ca0:	e18312a1 	orr	r1, r3, r1, lsr #5
80001ca4:	e0813190 	umull	r3, r1, r0, r1
80001ca8:	e20c0102 	and	r0, ip, #-2147483648	; 0x80000000
80001cac:	e3510502 	cmp	r1, #8388608	; 0x800000
80001cb0:	31a01081 	movcc	r1, r1, lsl #1
80001cb4:	31811fa3 	orrcc	r1, r1, r3, lsr #31
80001cb8:	31a03083 	movcc	r3, r3, lsl #1
80001cbc:	e1800001 	orr	r0, r0, r1
80001cc0:	e2c2207f 	sbc	r2, r2, #127	; 0x7f
80001cc4:	e35200fd 	cmp	r2, #253	; 0xfd
80001cc8:	8a00000f 	bhi	80001d0c <__aeabi_fmul+0xa0>
80001ccc:	e3530102 	cmp	r3, #-2147483648	; 0x80000000
80001cd0:	e0a00b82 	adc	r0, r0, r2, lsl #23
80001cd4:	03c00001 	biceq	r0, r0, #1	; 0x1
80001cd8:	e12fff1e 	bx	lr
80001cdc:	e3300000 	teq	r0, #0	; 0x0
80001ce0:	e20cc102 	and	ip, ip, #-2147483648	; 0x80000000
80001ce4:	01a01481 	moveq	r1, r1, lsl #9
80001ce8:	e18c04a0 	orr	r0, ip, r0, lsr #9
80001cec:	e18004a1 	orr	r0, r0, r1, lsr #9
80001cf0:	e252207f 	subs	r2, r2, #127	; 0x7f
80001cf4:	c27230ff 	rsbgts	r3, r2, #255	; 0xff
80001cf8:	c1800b82 	orrgt	r0, r0, r2, lsl #23
80001cfc:	c12fff1e 	bxgt	lr
80001d00:	e3800502 	orr	r0, r0, #8388608	; 0x800000
80001d04:	e3a03000 	mov	r3, #0	; 0x0
80001d08:	e2522001 	subs	r2, r2, #1	; 0x1
80001d0c:	ca000035 	bgt	80001de8 <__aeabi_fmul+0x17c>
80001d10:	e3720019 	cmn	r2, #25	; 0x19
80001d14:	d2000102 	andle	r0, r0, #-2147483648	; 0x80000000
80001d18:	d12fff1e 	bxle	lr
80001d1c:	e2622000 	rsb	r2, r2, #0	; 0x0
80001d20:	e1b01080 	movs	r1, r0, lsl #1
80001d24:	e1a01231 	mov	r1, r1, lsr r2
80001d28:	e2622020 	rsb	r2, r2, #32	; 0x20
80001d2c:	e1a0c210 	mov	ip, r0, lsl r2
80001d30:	e1b00061 	movs	r0, r1, rrx
80001d34:	e2a00000 	adc	r0, r0, #0	; 0x0
80001d38:	e193308c 	orrs	r3, r3, ip, lsl #1
80001d3c:	01c00fac 	biceq	r0, r0, ip, lsr #31
80001d40:	e12fff1e 	bx	lr
80001d44:	e3320000 	teq	r2, #0	; 0x0
80001d48:	e200c102 	and	ip, r0, #-2147483648	; 0x80000000
80001d4c:	01a00080 	moveq	r0, r0, lsl #1
80001d50:	03100502 	tsteq	r0, #8388608	; 0x800000
80001d54:	02422001 	subeq	r2, r2, #1	; 0x1
80001d58:	0afffffb 	beq	80001d4c <__aeabi_fmul+0xe0>
80001d5c:	e180000c 	orr	r0, r0, ip
80001d60:	e3330000 	teq	r3, #0	; 0x0
80001d64:	e201c102 	and	ip, r1, #-2147483648	; 0x80000000
80001d68:	01a01081 	moveq	r1, r1, lsl #1
80001d6c:	03110502 	tsteq	r1, #8388608	; 0x800000
80001d70:	02433001 	subeq	r3, r3, #1	; 0x1
80001d74:	0afffffb 	beq	80001d68 <__aeabi_fmul+0xfc>
80001d78:	e181100c 	orr	r1, r1, ip
80001d7c:	eaffffc0 	b	80001c84 <__aeabi_fmul+0x18>
80001d80:	e00c3ba1 	and	r3, ip, r1, lsr #23
80001d84:	e132000c 	teq	r2, ip
80001d88:	1133000c 	teqne	r3, ip
80001d8c:	0a000005 	beq	80001da8 <__aeabi_fmul+0x13c>
80001d90:	e3d0c102 	bics	ip, r0, #-2147483648	; 0x80000000
80001d94:	13d1c102 	bicnes	ip, r1, #-2147483648	; 0x80000000
80001d98:	1affffe9 	bne	80001d44 <__aeabi_fmul+0xd8>
80001d9c:	e0200001 	eor	r0, r0, r1
80001da0:	e2000102 	and	r0, r0, #-2147483648	; 0x80000000
80001da4:	e12fff1e 	bx	lr
80001da8:	e3300000 	teq	r0, #0	; 0x0
80001dac:	13300102 	teqne	r0, #-2147483648	; 0x80000000
80001db0:	01a00001 	moveq	r0, r1
80001db4:	13310000 	teqne	r1, #0	; 0x0
80001db8:	13310102 	teqne	r1, #-2147483648	; 0x80000000
80001dbc:	0a00000d 	beq	80001df8 <__aeabi_fmul+0x18c>
80001dc0:	e132000c 	teq	r2, ip
80001dc4:	1a000001 	bne	80001dd0 <__aeabi_fmul+0x164>
80001dc8:	e1b02480 	movs	r2, r0, lsl #9
80001dcc:	1a000009 	bne	80001df8 <__aeabi_fmul+0x18c>
80001dd0:	e133000c 	teq	r3, ip
80001dd4:	1a000002 	bne	80001de4 <__aeabi_fmul+0x178>
80001dd8:	e1b03481 	movs	r3, r1, lsl #9
80001ddc:	11a00001 	movne	r0, r1
80001de0:	1a000004 	bne	80001df8 <__aeabi_fmul+0x18c>
80001de4:	e0200001 	eor	r0, r0, r1
80001de8:	e2000102 	and	r0, r0, #-2147483648	; 0x80000000
80001dec:	e380047f 	orr	r0, r0, #2130706432	; 0x7f000000
80001df0:	e3800502 	orr	r0, r0, #8388608	; 0x800000
80001df4:	e12fff1e 	bx	lr
80001df8:	e380047f 	orr	r0, r0, #2130706432	; 0x7f000000
80001dfc:	e3800503 	orr	r0, r0, #12582912	; 0xc00000
80001e00:	e12fff1e 	bx	lr

80001e04 <__aeabi_fdiv>:
80001e04:	e3a0c0ff 	mov	ip, #255	; 0xff
80001e08:	e01c2ba0 	ands	r2, ip, r0, lsr #23
80001e0c:	101c3ba1 	andnes	r3, ip, r1, lsr #23
80001e10:	1132000c 	teqne	r2, ip
80001e14:	1133000c 	teqne	r3, ip
80001e18:	0a00003a 	beq	80001f08 <__aeabi_fdiv+0x104>
80001e1c:	e0422003 	sub	r2, r2, r3
80001e20:	e020c001 	eor	ip, r0, r1
80001e24:	e1b01481 	movs	r1, r1, lsl #9
80001e28:	e1a00480 	mov	r0, r0, lsl #9
80001e2c:	0a00001c 	beq	80001ea4 <__aeabi_fdiv+0xa0>
80001e30:	e3a03201 	mov	r3, #268435456	; 0x10000000
80001e34:	e1831221 	orr	r1, r3, r1, lsr #4
80001e38:	e1833220 	orr	r3, r3, r0, lsr #4
80001e3c:	e20c0102 	and	r0, ip, #-2147483648	; 0x80000000
80001e40:	e1530001 	cmp	r3, r1
80001e44:	31a03083 	movcc	r3, r3, lsl #1
80001e48:	e2a2207d 	adc	r2, r2, #125	; 0x7d
80001e4c:	e3a0c502 	mov	ip, #8388608	; 0x800000
80001e50:	e1530001 	cmp	r3, r1
80001e54:	20433001 	subcs	r3, r3, r1
80001e58:	2180000c 	orrcs	r0, r0, ip
80001e5c:	e15300a1 	cmp	r3, r1, lsr #1
80001e60:	204330a1 	subcs	r3, r3, r1, lsr #1
80001e64:	218000ac 	orrcs	r0, r0, ip, lsr #1
80001e68:	e1530121 	cmp	r3, r1, lsr #2
80001e6c:	20433121 	subcs	r3, r3, r1, lsr #2
80001e70:	2180012c 	orrcs	r0, r0, ip, lsr #2
80001e74:	e15301a1 	cmp	r3, r1, lsr #3
80001e78:	204331a1 	subcs	r3, r3, r1, lsr #3
80001e7c:	218001ac 	orrcs	r0, r0, ip, lsr #3
80001e80:	e1b03203 	movs	r3, r3, lsl #4
80001e84:	11b0c22c 	movnes	ip, ip, lsr #4
80001e88:	1afffff0 	bne	80001e50 <__aeabi_fdiv+0x4c>
80001e8c:	e35200fd 	cmp	r2, #253	; 0xfd
80001e90:	8affff9d 	bhi	80001d0c <__aeabi_fmul+0xa0>
80001e94:	e1530001 	cmp	r3, r1
80001e98:	e0a00b82 	adc	r0, r0, r2, lsl #23
80001e9c:	03c00001 	biceq	r0, r0, #1	; 0x1
80001ea0:	e12fff1e 	bx	lr
80001ea4:	e20cc102 	and	ip, ip, #-2147483648	; 0x80000000
80001ea8:	e18c04a0 	orr	r0, ip, r0, lsr #9
80001eac:	e292207f 	adds	r2, r2, #127	; 0x7f
80001eb0:	c27230ff 	rsbgts	r3, r2, #255	; 0xff
80001eb4:	c1800b82 	orrgt	r0, r0, r2, lsl #23
80001eb8:	c12fff1e 	bxgt	lr
80001ebc:	e3800502 	orr	r0, r0, #8388608	; 0x800000
80001ec0:	e3a03000 	mov	r3, #0	; 0x0
80001ec4:	e2522001 	subs	r2, r2, #1	; 0x1
80001ec8:	eaffff8f 	b	80001d0c <__aeabi_fmul+0xa0>
80001ecc:	e3320000 	teq	r2, #0	; 0x0
80001ed0:	e200c102 	and	ip, r0, #-2147483648	; 0x80000000
80001ed4:	01a00080 	moveq	r0, r0, lsl #1
80001ed8:	03100502 	tsteq	r0, #8388608	; 0x800000
80001edc:	02422001 	subeq	r2, r2, #1	; 0x1
80001ee0:	0afffffb 	beq	80001ed4 <__aeabi_fdiv+0xd0>
80001ee4:	e180000c 	orr	r0, r0, ip
80001ee8:	e3330000 	teq	r3, #0	; 0x0
80001eec:	e201c102 	and	ip, r1, #-2147483648	; 0x80000000
80001ef0:	01a01081 	moveq	r1, r1, lsl #1
80001ef4:	03110502 	tsteq	r1, #8388608	; 0x800000
80001ef8:	02433001 	subeq	r3, r3, #1	; 0x1
80001efc:	0afffffb 	beq	80001ef0 <__aeabi_fdiv+0xec>
80001f00:	e181100c 	orr	r1, r1, ip
80001f04:	eaffffc4 	b	80001e1c <__aeabi_fdiv+0x18>
80001f08:	e00c3ba1 	and	r3, ip, r1, lsr #23
80001f0c:	e132000c 	teq	r2, ip
80001f10:	1a000005 	bne	80001f2c <__aeabi_fdiv+0x128>
80001f14:	e1b02480 	movs	r2, r0, lsl #9
80001f18:	1affffb6 	bne	80001df8 <__aeabi_fmul+0x18c>
80001f1c:	e133000c 	teq	r3, ip
80001f20:	1affffaf 	bne	80001de4 <__aeabi_fmul+0x178>
80001f24:	e1a00001 	mov	r0, r1
80001f28:	eaffffb2 	b	80001df8 <__aeabi_fmul+0x18c>
80001f2c:	e133000c 	teq	r3, ip
80001f30:	1a000003 	bne	80001f44 <__aeabi_fdiv+0x140>
80001f34:	e1b03481 	movs	r3, r1, lsl #9
80001f38:	0affff97 	beq	80001d9c <__aeabi_fmul+0x130>
80001f3c:	e1a00001 	mov	r0, r1
80001f40:	eaffffac 	b	80001df8 <__aeabi_fmul+0x18c>
80001f44:	e3d0c102 	bics	ip, r0, #-2147483648	; 0x80000000
80001f48:	13d1c102 	bicnes	ip, r1, #-2147483648	; 0x80000000
80001f4c:	1affffde 	bne	80001ecc <__aeabi_fdiv+0xc8>
80001f50:	e3d02102 	bics	r2, r0, #-2147483648	; 0x80000000
80001f54:	1affffa2 	bne	80001de4 <__aeabi_fmul+0x178>
80001f58:	e3d13102 	bics	r3, r1, #-2147483648	; 0x80000000
80001f5c:	1affff8e 	bne	80001d9c <__aeabi_fmul+0x130>
80001f60:	eaffffa4 	b	80001df8 <__aeabi_fmul+0x18c>

80001f64 <__aeabi_f2uiz>:
80001f64:	e1b02080 	movs	r2, r0, lsl #1
80001f68:	2a000008 	bcs	80001f90 <__aeabi_f2uiz+0x2c>
80001f6c:	e352047f 	cmp	r2, #2130706432	; 0x7f000000
80001f70:	3a000006 	bcc	80001f90 <__aeabi_f2uiz+0x2c>
80001f74:	e3a0309e 	mov	r3, #158	; 0x9e
80001f78:	e0532c22 	subs	r2, r3, r2, lsr #24
80001f7c:	4a000005 	bmi	80001f98 <__aeabi_f2uiz+0x34>
80001f80:	e1a03400 	mov	r3, r0, lsl #8
80001f84:	e3833102 	orr	r3, r3, #-2147483648	; 0x80000000
80001f88:	e1a00233 	mov	r0, r3, lsr r2
80001f8c:	e12fff1e 	bx	lr
80001f90:	e3a00000 	mov	r0, #0	; 0x0
80001f94:	e12fff1e 	bx	lr
80001f98:	e3720061 	cmn	r2, #97	; 0x61
80001f9c:	1a000001 	bne	80001fa8 <__aeabi_f2uiz+0x44>
80001fa0:	e1b02480 	movs	r2, r0, lsl #9
80001fa4:	1a000001 	bne	80001fb0 <__aeabi_f2uiz+0x4c>
80001fa8:	e3e00000 	mvn	r0, #0	; 0x0
80001fac:	e12fff1e 	bx	lr
80001fb0:	e3a00000 	mov	r0, #0	; 0x0
80001fb4:	e12fff1e 	bx	lr

80001fb8 <CFG_PeripheralClockConfig>:
80001fb8:	e3510001 	cmp	r1, #1	; 0x1
80001fbc:	e52de004 	str	lr, [sp, #-4]!
80001fc0:	e20000ff 	and	r0, r0, #255	; 0xff
80001fc4:	1a000009 	bne	80001ff0 <CFG_PeripheralClockConfig+0x38>
80001fc8:	e350001f 	cmp	r0, #31	; 0x1f
80001fcc:	e3a0e101 	mov	lr, #1073741824	; 0x40000000
80001fd0:	959e3008 	ldrls	r3, [lr, #8]
80001fd4:	859e300c 	ldrhi	r3, [lr, #12]
80001fd8:	e2402020 	sub	r2, r0, #32	; 0x20
80001fdc:	91833011 	orrls	r3, r3, r1, lsl r0
80001fe0:	81833211 	orrhi	r3, r3, r1, lsl r2
80001fe4:	958e3008 	strls	r3, [lr, #8]
80001fe8:	858e300c 	strhi	r3, [lr, #12]
80001fec:	e49df004 	ldr	pc, [sp], #4
80001ff0:	e350001f 	cmp	r0, #31	; 0x1f
80001ff4:	e3a0e101 	mov	lr, #1073741824	; 0x40000000
80001ff8:	959e3008 	ldrls	r3, [lr, #8]
80001ffc:	859e300c 	ldrhi	r3, [lr, #12]
80002000:	e2401020 	sub	r1, r0, #32	; 0x20
80002004:	93a02001 	movls	r2, #1	; 0x1
80002008:	83a02001 	movhi	r2, #1	; 0x1
8000200c:	91c33012 	bicls	r3, r3, r2, lsl r0
80002010:	81c33112 	bichi	r3, r3, r2, lsl r1
80002014:	958e3008 	strls	r3, [lr, #8]
80002018:	858e300c 	strhi	r3, [lr, #12]
8000201c:	e49df004 	ldr	pc, [sp], #4

80002020 <ADC_Init>:
80002020:	e3e0cc07 	mvn	ip, #1792	; 0x700
80002024:	e3a03000 	mov	r3, #0	; 0x0
80002028:	e14c3fbf 	strh	r3, [ip, #-255]
8000202c:	e14c3fbb 	strh	r3, [ip, #-251]
80002030:	e14c3fb7 	strh	r3, [ip, #-247]
80002034:	e15c3ebf 	ldrh	r3, [ip, #-239]
80002038:	e2033902 	and	r3, r3, #32768	; 0x8000
8000203c:	e14c3ebf 	strh	r3, [ip, #-239]
80002040:	e3e03000 	mvn	r3, #0	; 0x0
80002044:	e14c3bb7 	strh	r3, [ip, #-183]
80002048:	e5d03000 	ldrb	r3, [r0]
8000204c:	e3530002 	cmp	r3, #2	; 0x2
80002050:	e59f10a0 	ldr	r1, [pc, #160]	; 800020f8 <.text+0x20f8>
80002054:	1a000006 	bne	80002074 <ADC_Init+0x54>
80002058:	e15c3ebf 	ldrh	r3, [ip, #-239]
8000205c:	e1d020b6 	ldrh	r2, [r0, #6]
80002060:	e1833002 	orr	r3, r3, r2
80002064:	e14c3ebf 	strh	r3, [ip, #-239]
80002068:	e15c3fbf 	ldrh	r3, [ip, #-255]
8000206c:	e3833002 	orr	r3, r3, #2	; 0x2
80002070:	e14c3fbf 	strh	r3, [ip, #-255]
80002074:	e15c3ebf 	ldrh	r3, [ip, #-239]
80002078:	e1d020b8 	ldrh	r2, [r0, #8]
8000207c:	e1833002 	orr	r3, r3, r2
80002080:	e14c3ebf 	strh	r3, [ip, #-239]
80002084:	e15c3fb7 	ldrh	r3, [ip, #-247]
80002088:	e1d020ba 	ldrh	r2, [r0, #10]
8000208c:	e1833002 	orr	r3, r3, r2
80002090:	e14c3fb7 	strh	r3, [ip, #-247]
80002094:	e15c2fbb 	ldrh	r2, [ip, #-251]
80002098:	e5d03002 	ldrb	r3, [r0, #2]
8000209c:	e0021001 	and	r1, r2, r1
800020a0:	e1813283 	orr	r3, r1, r3, lsl #5
800020a4:	e14c3fbb 	strh	r3, [ip, #-251]
800020a8:	e5d02001 	ldrb	r2, [r0, #1]
800020ac:	e3520000 	cmp	r2, #0	; 0x0
800020b0:	0a000006 	beq	800020d0 <ADC_Init+0xb0>
800020b4:	e15c3fbb 	ldrh	r3, [ip, #-251]
800020b8:	e3c33007 	bic	r3, r3, #7	; 0x7
800020bc:	e1833002 	orr	r3, r3, r2
800020c0:	e14c3fbb 	strh	r3, [ip, #-251]
800020c4:	e15c3fbb 	ldrh	r3, [ip, #-251]
800020c8:	e3833902 	orr	r3, r3, #32768	; 0x8000
800020cc:	e14c3fbb 	strh	r3, [ip, #-251]
800020d0:	e5d03004 	ldrb	r3, [r0, #4]
800020d4:	e15c2fb7 	ldrh	r2, [ip, #-247]
800020d8:	e5d01003 	ldrb	r1, [r0, #3]
800020dc:	e2433001 	sub	r3, r3, #1	; 0x1
800020e0:	e1822001 	orr	r2, r2, r1
800020e4:	e1822303 	orr	r2, r2, r3, lsl #6
800020e8:	e1a02802 	mov	r2, r2, lsl #16
800020ec:	e1a02822 	mov	r2, r2, lsr #16
800020f0:	e14c2fb7 	strh	r2, [ip, #-247]
800020f4:	e12fff1e 	bx	lr
800020f8:	00007f1f 	andeq	r7, r0, pc, lsl pc

800020fc <ADC_StructInit>:
800020fc:	e3a03000 	mov	r3, #0	; 0x0
80002100:	e1c030ba 	strh	r3, [r0, #10]
80002104:	e5c03000 	strb	r3, [r0]
80002108:	e5c03001 	strb	r3, [r0, #1]
8000210c:	e5c03002 	strb	r3, [r0, #2]
80002110:	e5c03003 	strb	r3, [r0, #3]
80002114:	e5c03004 	strb	r3, [r0, #4]
80002118:	e1c030b6 	strh	r3, [r0, #6]
8000211c:	e1c030b8 	strh	r3, [r0, #8]
80002120:	e12fff1e 	bx	lr

80002124 <ADC_ConversionCmd>:
80002124:	e1a00800 	mov	r0, r0, lsl #16
80002128:	e1a00820 	mov	r0, r0, lsr #16
8000212c:	e3500001 	cmp	r0, #1	; 0x1
80002130:	e3e01c07 	mvn	r1, #1792	; 0x700
80002134:	01513fbf 	ldreqh	r3, [r1, #-255]
80002138:	11513fbf 	ldrneh	r3, [r1, #-255]
8000213c:	03833001 	orreq	r3, r3, #1	; 0x1
80002140:	10033000 	andne	r3, r3, r0
80002144:	01413fbf 	streqh	r3, [r1, #-255]
80002148:	11413fbf 	strneh	r3, [r1, #-255]
8000214c:	e12fff1e 	bx	lr

80002150 <ADC_Cmd>:
80002150:	e3500000 	cmp	r0, #0	; 0x0
80002154:	e3e01c07 	mvn	r1, #1792	; 0x700
80002158:	11513ebf 	ldrneh	r3, [r1, #-239]
8000215c:	01513ebf 	ldreqh	r3, [r1, #-239]
80002160:	11a03883 	movne	r3, r3, lsl #17
80002164:	03833902 	orreq	r3, r3, #32768	; 0x8000
80002168:	11a038a3 	movne	r3, r3, lsr #17
8000216c:	01413ebf 	streqh	r3, [r1, #-239]
80002170:	11413ebf 	strneh	r3, [r1, #-239]
80002174:	e12fff1e 	bx	lr

80002178 <ADC_GetConversionValue>:
80002178:	e59f300c 	ldr	r3, [pc, #12]	; 8000218c <.text+0x218c>
8000217c:	e1a00800 	mov	r0, r0, lsl #16
80002180:	e1a00720 	mov	r0, r0, lsr #14
80002184:	e19000b3 	ldrh	r0, [r0, r3]
80002188:	e12fff1e 	bx	lr
8000218c:	fffff850 	undefined instruction 0xfffff850

80002190 <ADC_ITConfig>:
80002190:	e3510001 	cmp	r1, #1	; 0x1
80002194:	e3e0cc07 	mvn	ip, #1792	; 0x700
80002198:	015c3bb3 	ldreqh	r3, [ip, #-179]
8000219c:	115c3bb3 	ldrneh	r3, [ip, #-179]
800021a0:	e1a00800 	mov	r0, r0, lsl #16
800021a4:	e1a00820 	mov	r0, r0, lsr #16
800021a8:	01833000 	orreq	r3, r3, r0
800021ac:	11c33000 	bicne	r3, r3, r0
800021b0:	014c3bb3 	streqh	r3, [ip, #-179]
800021b4:	114c3bb3 	strneh	r3, [ip, #-179]
800021b8:	e12fff1e 	bx	lr

800021bc <ADC_FlagClear>:
800021bc:	e1a00800 	mov	r0, r0, lsl #16
800021c0:	e1a00820 	mov	r0, r0, lsr #16
800021c4:	e3e03c07 	mvn	r3, #1792	; 0x700
800021c8:	e1430bb7 	strh	r0, [r3, #-183]
800021cc:	e12fff1e 	bx	lr

800021d0 <ADC_DeInit>:
800021d0:	e52de004 	str	lr, [sp, #-4]!
800021d4:	e3a0001c 	mov	r0, #28	; 0x1c
800021d8:	e3a01000 	mov	r1, #0	; 0x0
800021dc:	ebffff75 	bl	80001fb8 <CFG_PeripheralClockConfig>
800021e0:	e3a0001c 	mov	r0, #28	; 0x1c
800021e4:	e3a01001 	mov	r1, #1	; 0x1
800021e8:	e49de004 	ldr	lr, [sp], #4
800021ec:	eaffff71 	b	80001fb8 <CFG_PeripheralClockConfig>

800021f0 <CMU_DeInit>:
800021f0:	e59f2040 	ldr	r2, [pc, #64]	; 80002238 <.text+0x2238>
800021f4:	e3e03c09 	mvn	r3, #2304	; 0x900
800021f8:	e1432dbb 	strh	r2, [r3, #-219]
800021fc:	e59f2038 	ldr	r2, [pc, #56]	; 8000223c <.text+0x223c>
80002200:	e1432dbb 	strh	r2, [r3, #-219]
80002204:	e3a02c02 	mov	r2, #512	; 0x200
80002208:	e1432ebf 	strh	r2, [r3, #-239]
8000220c:	e3a02008 	mov	r2, #8	; 0x8
80002210:	e1432fbf 	strh	r2, [r3, #-255]
80002214:	e3a01000 	mov	r1, #0	; 0x0
80002218:	e3e02a0f 	mvn	r2, #61440	; 0xf000
8000221c:	e1432fb7 	strh	r2, [r3, #-247]
80002220:	e1431fb3 	strh	r1, [r3, #-243]
80002224:	e1431ebf 	strh	r1, [r3, #-239]
80002228:	e1431eb7 	strh	r1, [r3, #-231]
8000222c:	e1431eb3 	strh	r1, [r3, #-227]
80002230:	e1431dbb 	strh	r1, [r3, #-219]
80002234:	e12fff1e 	bx	lr
80002238:	000050fa 	streqd	r5, [r0], -sl
8000223c:	ffffaf05 	undefined instruction 0xffffaf05

80002240 <CMU_StructInit>:
80002240:	e3a03008 	mov	r3, #8	; 0x8
80002244:	e3a02000 	mov	r2, #0	; 0x0
80002248:	e5c03000 	strb	r3, [r0]
8000224c:	e3e03a0f 	mvn	r3, #61440	; 0xf000
80002250:	e1c020ba 	strh	r2, [r0, #10]
80002254:	e1c030b2 	strh	r3, [r0, #2]
80002258:	e5c02001 	strb	r2, [r0, #1]
8000225c:	e1c020b4 	strh	r2, [r0, #4]
80002260:	e1c020b6 	strh	r2, [r0, #6]
80002264:	e1c020b8 	strh	r2, [r0, #8]
80002268:	e12fff1e 	bx	lr

8000226c <CMU_Lock>:
8000226c:	e3500000 	cmp	r0, #0	; 0x0
80002270:	059f301c 	ldreq	r3, [pc, #28]	; 80002294 <.text+0x2294>
80002274:	e3e02c09 	mvn	r2, #2304	; 0x900
80002278:	01423dbb 	streqh	r3, [r2, #-219]
8000227c:	059f3014 	ldreq	r3, [pc, #20]	; 80002298 <.text+0x2298>
80002280:	13e03c09 	mvnne	r3, #2304	; 0x900
80002284:	13a02000 	movne	r2, #0	; 0x0
80002288:	01423dbb 	streqh	r3, [r2, #-219]
8000228c:	11432dbb 	strneh	r2, [r3, #-219]
80002290:	e12fff1e 	bx	lr
80002294:	000050fa 	streqd	r5, [r0], -sl
80002298:	ffffaf05 	undefined instruction 0xffffaf05

8000229c <CMU_Init>:
8000229c:	e92d4010 	stmdb	sp!, {r4, lr}
800022a0:	e1a04000 	mov	r4, r0
800022a4:	e3a00000 	mov	r0, #0	; 0x0
800022a8:	ebffffef 	bl	8000226c <CMU_Lock>
800022ac:	e3e02c09 	mvn	r2, #2304	; 0x900
800022b0:	e3a03008 	mov	r3, #8	; 0x8
800022b4:	e1423fbf 	strh	r3, [r2, #-255]
800022b8:	e3e03a0f 	mvn	r3, #61440	; 0xf000
800022bc:	e1423fb7 	strh	r3, [r2, #-247]
800022c0:	e3a03000 	mov	r3, #0	; 0x0
800022c4:	e1423fb3 	strh	r3, [r2, #-243]
800022c8:	e59f3064 	ldr	r3, [pc, #100]	; 80002334 <.text+0x2334>
800022cc:	e1521ebf 	ldrh	r1, [r2, #-239]
800022d0:	e0013003 	and	r3, r1, r3
800022d4:	e1423ebf 	strh	r3, [r2, #-239]
800022d8:	e5d43000 	ldrb	r3, [r4]
800022dc:	e1423fbf 	strh	r3, [r2, #-255]
800022e0:	e5d43001 	ldrb	r3, [r4, #1]
800022e4:	e1423dbf 	strh	r3, [r2, #-223]
800022e8:	e1d430b2 	ldrh	r3, [r4, #2]
800022ec:	e1423fb7 	strh	r3, [r2, #-247]
800022f0:	e1d430b4 	ldrh	r3, [r4, #4]
800022f4:	e1423fb3 	strh	r3, [r2, #-243]
800022f8:	e1523ebf 	ldrh	r3, [r2, #-239]
800022fc:	e1d410b6 	ldrh	r1, [r4, #6]
80002300:	e1833001 	orr	r3, r3, r1
80002304:	e1423ebf 	strh	r3, [r2, #-239]
80002308:	e1523ebf 	ldrh	r3, [r2, #-239]
8000230c:	e1d410b8 	ldrh	r1, [r4, #8]
80002310:	e1833001 	orr	r3, r3, r1
80002314:	e1423ebf 	strh	r3, [r2, #-239]
80002318:	e1d410ba 	ldrh	r1, [r4, #10]
8000231c:	e1523ebf 	ldrh	r3, [r2, #-239]
80002320:	e3a00001 	mov	r0, #1	; 0x1
80002324:	e1833001 	orr	r3, r3, r1
80002328:	e1423ebf 	strh	r3, [r2, #-239]
8000232c:	e8bd4010 	ldmia	sp!, {r4, lr}
80002330:	eaffffcd 	b	8000226c <CMU_Lock>
80002334:	0000fff8 	streqd	pc, [r0], -r8

80002338 <EIC_IRQChannelConfig>:
80002338:	e3510001 	cmp	r1, #1	; 0x1
8000233c:	e52de004 	str	lr, [sp, #-4]!
80002340:	e20000ff 	and	r0, r0, #255	; 0xff
80002344:	1a000009 	bne	80002370 <EIC_IRQChannelConfig+0x38>
80002348:	e350001f 	cmp	r0, #31	; 0x1f
8000234c:	e3e0ec03 	mvn	lr, #768	; 0x300
80002350:	951e30df 	ldrls	r3, [lr, #-223]
80002354:	851e30db 	ldrhi	r3, [lr, #-219]
80002358:	e2402020 	sub	r2, r0, #32	; 0x20
8000235c:	91833011 	orrls	r3, r3, r1, lsl r0
80002360:	81833211 	orrhi	r3, r3, r1, lsl r2
80002364:	950e30df 	strls	r3, [lr, #-223]
80002368:	850e30db 	strhi	r3, [lr, #-219]
8000236c:	e49df004 	ldr	pc, [sp], #4
80002370:	e350001f 	cmp	r0, #31	; 0x1f
80002374:	e3e0ec03 	mvn	lr, #768	; 0x300
80002378:	951e30df 	ldrls	r3, [lr, #-223]
8000237c:	851e30db 	ldrhi	r3, [lr, #-219]
80002380:	e2401020 	sub	r1, r0, #32	; 0x20
80002384:	93a02001 	movls	r2, #1	; 0x1
80002388:	83a02001 	movhi	r2, #1	; 0x1
8000238c:	91c33012 	bicls	r3, r3, r2, lsl r0
80002390:	81c33112 	bichi	r3, r3, r2, lsl r1
80002394:	950e30df 	strls	r3, [lr, #-223]
80002398:	850e30db 	strhi	r3, [lr, #-219]
8000239c:	e49df004 	ldr	pc, [sp], #4

800023a0 <EIC_IRQChannelPriorityConfig>:
800023a0:	e1a00100 	mov	r0, r0, lsl #2
800023a4:	e2000fff 	and	r0, r0, #1020	; 0x3fc
800023a8:	e51033a0 	ldr	r3, [r0, #-928]
800023ac:	e1a03823 	mov	r3, r3, lsr #16
800023b0:	e1a03803 	mov	r3, r3, lsl #16
800023b4:	e201100f 	and	r1, r1, #15	; 0xf
800023b8:	e1833001 	orr	r3, r3, r1
800023bc:	e50033a0 	str	r3, [r0, #-928]
800023c0:	e12fff1e 	bx	lr

800023c4 <EIC_IRQCmd>:
800023c4:	e92d4010 	stmdb	sp!, {r4, lr}
800023c8:	e1a04000 	mov	r4, r0
800023cc:	ebfff7b8 	bl	800002b4 <ARMIRQ_Disable>
800023d0:	e3540001 	cmp	r4, #1	; 0x1
800023d4:	e3e00c03 	mvn	r0, #768	; 0x300
800023d8:	e59f201c 	ldr	r2, [pc, #28]	; 800023fc <.text+0x23fc>
800023dc:	051030ff 	ldreq	r3, [r0, #-255]
800023e0:	151030ff 	ldrne	r3, [r0, #-255]
800023e4:	03833001 	orreq	r3, r3, #1	; 0x1
800023e8:	10032002 	andne	r2, r3, r2
800023ec:	050030ff 	streq	r3, [r0, #-255]
800023f0:	150020ff 	strne	r2, [r0, #-255]
800023f4:	e8bd4010 	ldmia	sp!, {r4, lr}
800023f8:	eafff7b5 	b	800002d4 <ARMIRQ_Enable>
800023fc:	0000fffe 	streqd	pc, [r0], -lr

80002400 <GPIO_Init>:
80002400:	e1d130b2 	ldrh	r3, [r1, #2]
80002404:	e2433001 	sub	r3, r3, #1	; 0x1
80002408:	e3530006 	cmp	r3, #6	; 0x6
8000240c:	979ff103 	ldrls	pc, [pc, r3, lsl #2]
80002410:	ea00004f 	b	80002554 <.text+0x2554>
80002414:	80002430 	andhi	r2, r0, r0, lsr r4
80002418:	80002454 	andhi	r2, r0, r4, asr r4
8000241c:	80002488 	andhi	r2, r0, r8, lsl #9
80002420:	800024b0 	strhih	r2, [r0], -r0
80002424:	800024e4 	andhi	r2, r0, r4, ror #9
80002428:	80002500 	andhi	r2, r0, r0, lsl #10
8000242c:	8000252c 	andhi	r2, r0, ip, lsr #10
80002430:	e1d120b0 	ldrh	r2, [r1]
80002434:	e1e02002 	mvn	r2, r2
80002438:	e1d030b0 	ldrh	r3, [r0]
8000243c:	e1a02802 	mov	r2, r2, lsl #16
80002440:	e1a02822 	mov	r2, r2, lsr #16
80002444:	e0033002 	and	r3, r3, r2
80002448:	e1c030b0 	strh	r3, [r0]
8000244c:	e1d030b4 	ldrh	r3, [r0, #4]
80002450:	ea000007 	b	80002474 <.text+0x2474>
80002454:	e1d120b0 	ldrh	r2, [r1]
80002458:	e1d030b0 	ldrh	r3, [r0]
8000245c:	e1833002 	orr	r3, r3, r2
80002460:	e1c030b0 	strh	r3, [r0]
80002464:	e1e02002 	mvn	r2, r2
80002468:	e1a02802 	mov	r2, r2, lsl #16
8000246c:	e1d030b4 	ldrh	r3, [r0, #4]
80002470:	e1a02822 	mov	r2, r2, lsr #16
80002474:	e0033002 	and	r3, r3, r2
80002478:	e1c030b4 	strh	r3, [r0, #4]
8000247c:	e1d030b8 	ldrh	r3, [r0, #8]
80002480:	e0033002 	and	r3, r3, r2
80002484:	ea000026 	b	80002524 <.text+0x2524>
80002488:	e1d120b0 	ldrh	r2, [r1]
8000248c:	e1d030b0 	ldrh	r3, [r0]
80002490:	e1833002 	orr	r3, r3, r2
80002494:	e1c030b0 	strh	r3, [r0]
80002498:	e1d030b4 	ldrh	r3, [r0, #4]
8000249c:	e1833002 	orr	r3, r3, r2
800024a0:	e1c030b4 	strh	r3, [r0, #4]
800024a4:	e1d030b8 	ldrh	r3, [r0, #8]
800024a8:	e1c33002 	bic	r3, r3, r2
800024ac:	ea00001c 	b	80002524 <.text+0x2524>
800024b0:	e1d110b0 	ldrh	r1, [r1]
800024b4:	e1e02001 	mvn	r2, r1
800024b8:	e1d030b0 	ldrh	r3, [r0]
800024bc:	e1a02802 	mov	r2, r2, lsl #16
800024c0:	e1a02822 	mov	r2, r2, lsr #16
800024c4:	e0033002 	and	r3, r3, r2
800024c8:	e1c030b0 	strh	r3, [r0]
800024cc:	e1d030b4 	ldrh	r3, [r0, #4]
800024d0:	e0033002 	and	r3, r3, r2
800024d4:	e1c030b4 	strh	r3, [r0, #4]
800024d8:	e1d030b8 	ldrh	r3, [r0, #8]
800024dc:	e1833001 	orr	r3, r3, r1
800024e0:	ea00000f 	b	80002524 <.text+0x2524>
800024e4:	e1d120b0 	ldrh	r2, [r1]
800024e8:	e1d030b0 	ldrh	r3, [r0]
800024ec:	e1833002 	orr	r3, r3, r2
800024f0:	e1c030b0 	strh	r3, [r0]
800024f4:	e1d030b4 	ldrh	r3, [r0, #4]
800024f8:	e1c33002 	bic	r3, r3, r2
800024fc:	ea000005 	b	80002518 <.text+0x2518>
80002500:	e1d120b0 	ldrh	r2, [r1]
80002504:	e1d030b0 	ldrh	r3, [r0]
80002508:	e1c33002 	bic	r3, r3, r2
8000250c:	e1c030b0 	strh	r3, [r0]
80002510:	e1d030b4 	ldrh	r3, [r0, #4]
80002514:	e1833002 	orr	r3, r3, r2
80002518:	e1c030b4 	strh	r3, [r0, #4]
8000251c:	e1d030b8 	ldrh	r3, [r0, #8]
80002520:	e1833002 	orr	r3, r3, r2
80002524:	e1c030b8 	strh	r3, [r0, #8]
80002528:	e12fff1e 	bx	lr
8000252c:	e1d120b0 	ldrh	r2, [r1]
80002530:	e1d030b0 	ldrh	r3, [r0]
80002534:	e1833002 	orr	r3, r3, r2
80002538:	e1c030b0 	strh	r3, [r0]
8000253c:	e1d030b4 	ldrh	r3, [r0, #4]
80002540:	e1833002 	orr	r3, r3, r2
80002544:	e1c030b4 	strh	r3, [r0, #4]
80002548:	e1d030b8 	ldrh	r3, [r0, #8]
8000254c:	e1833002 	orr	r3, r3, r2
80002550:	e1c030b8 	strh	r3, [r0, #8]
80002554:	e12fff1e 	bx	lr

80002558 <GPIO_BitWrite>:
80002558:	e3120001 	tst	r2, #1	; 0x1
8000255c:	11d030bc 	ldrneh	r3, [r0, #12]
80002560:	01d030bc 	ldreqh	r3, [r0, #12]
80002564:	e1a01801 	mov	r1, r1, lsl #16
80002568:	e1a01821 	mov	r1, r1, lsr #16
8000256c:	11833001 	orrne	r3, r3, r1
80002570:	01c33001 	biceq	r3, r3, r1
80002574:	e1c030bc 	strh	r3, [r0, #12]
80002578:	e12fff1e 	bx	lr

8000257c <GPIO_ByteWrite>:
8000257c:	e20110ff 	and	r1, r1, #255	; 0xff
80002580:	e3510008 	cmp	r1, #8	; 0x8
80002584:	01d030bc 	ldreqh	r3, [r0, #12]
80002588:	11d030bc 	ldrneh	r3, [r0, #12]
8000258c:	e20220ff 	and	r2, r2, #255	; 0xff
80002590:	020330ff 	andeq	r3, r3, #255	; 0xff
80002594:	12033cff 	andne	r3, r3, #65280	; 0xff00
80002598:	01833402 	orreq	r3, r3, r2, lsl #8
8000259c:	11833002 	orrne	r3, r3, r2
800025a0:	e1c030bc 	strh	r3, [r0, #12]
800025a4:	e12fff1e 	bx	lr

800025a8 <GPIO_WordWrite>:
800025a8:	e1a01801 	mov	r1, r1, lsl #16
800025ac:	e1a01821 	mov	r1, r1, lsr #16
800025b0:	e1c010bc 	strh	r1, [r0, #12]
800025b4:	e12fff1e 	bx	lr
